
C:/intelFPGA_lite/18.0/ECE243/gravityGuy/FinalProj.axf:     file format elf32-littlearm


Disassembly of section .vectors:

00000000 <__cs3_interrupt_vector>:
   0:	18 f0 9f e5 18 f0 9f e5 18 f0 9f e5 18 f0 9f e5     ................
  10:	18 f0 9f e5 18 f0 9f e5 18 f0 9f e5 18 f0 9f e5     ................
  20:	30 0a 00 00 34 0a 00 00 38 0a 00 00 3c 0a 00 00     0...4...8...<...
  30:	40 0a 00 00 54 66 02 00 f0 09 00 00 44 0a 00 00     @...Tf......D...

Disassembly of section .text:

00000040 <__cs3_reset_generic>:
      40:	ea000026 	b	e0 <__cs3_start_asm_sim>

00000044 <__cs3_start_c>:
      44:	e59f608c 	ldr	r6, [pc, #140]	; d8 <__cs3_start_c+0x94>
      48:	e3560000 	cmp	r6, #0
      4c:	e92d4080 	push	{r7, lr}
      50:	e2466001 	sub	r6, r6, #1
      54:	0a00001e 	beq	d4 <__cs3_start_c+0x90>
      58:	e59f507c 	ldr	r5, [pc, #124]	; dc <__cs3_start_c+0x98>
      5c:	e3a00000 	mov	r0, #0
      60:	e3a01000 	mov	r1, #0
      64:	e515200c 	ldr	r2, [r5, #-12]
      68:	e515e010 	ldr	lr, [r5, #-16]
      6c:	e5154008 	ldr	r4, [r5, #-8]
      70:	e15e0002 	cmp	lr, r2
      74:	00822004 	addeq	r2, r2, r4
      78:	0a000009 	beq	a4 <__cs3_start_c+0x60>
      7c:	e3540000 	cmp	r4, #0
      80:	0a000007 	beq	a4 <__cs3_start_c+0x60>
      84:	e1a07002 	mov	r7, r2
      88:	e1a0c002 	mov	r12, r2
      8c:	e8be000c 	ldm	lr!, {r2, r3}
      90:	e8ac000c 	stmia	r12!, {r2, r3}
      94:	e067300c 	rsb	r3, r7, r12
      98:	e1540003 	cmp	r4, r3
      9c:	e1a0200c 	mov	r2, r12
      a0:	1afffff9 	bne	8c <__cs3_start_c+0x48>
      a4:	e515e004 	ldr	lr, [r5, #-4]
      a8:	e35e0000 	cmp	lr, #0
      ac:	11a03002 	movne	r3, r2
      b0:	0a000003 	beq	c4 <__cs3_start_c+0x80>
      b4:	e8a30003 	stmia	r3!, {r0, r1}
      b8:	e062c003 	rsb	r12, r2, r3
      bc:	e15e000c 	cmp	lr, r12
      c0:	1afffffb 	bne	b4 <__cs3_start_c+0x70>
      c4:	e2466001 	sub	r6, r6, #1
      c8:	e3760001 	cmn	r6, #1
      cc:	e2855014 	add	r5, r5, #20
      d0:	1affffe3 	bne	64 <__cs3_start_c+0x20>
      d4:	eb009945 	bl	265f0 <__cs3_premain>
      d8:	00000001 	.word	0x00000001
      dc:	0002673c 	.word	0x0002673c

000000e0 <__cs3_start_asm_sim>:
      e0:	e28f103c 	add	r1, pc, #60	; 0x3c
      e4:	e3a00016 	mov	r0, #22
      e8:	ef123456 	svc	0x00123456
      ec:	e3500000 	cmp	r0, #0
      f0:	ba000008 	blt	118 <__cs3_start_asm_sim+0x38>
      f4:	e59f2028 	ldr	r2, [pc, #40]	; 124 <__cs3_heap_start_ptr>
      f8:	e59fd01c 	ldr	sp, [pc, #28]	; 11c <__cs3_start_asm_sim+0x3c>
      fc:	e5920008 	ldr	r0, [r2, #8]
     100:	e3500000 	cmp	r0, #0
     104:	11a0d000 	movne	sp, r0
     108:	e59f1010 	ldr	r1, [pc, #16]	; 120 <__cs3_start_asm_sim+0x40>
     10c:	e5920004 	ldr	r0, [r2, #4]
     110:	e3500000 	cmp	r0, #0
     114:	15810000 	strne	r0, [r1]
     118:	eaffffc9 	b	44 <__cs3_start_c>
     11c:	3ffffff8 	.word	0x3ffffff8
     120:	00026bb8 	.word	0x00026bb8

00000124 <__cs3_heap_start_ptr>:
     124:	00026bf8 	.word	0x00026bf8

00000128 <_start>:
     128:	e51fd000 	ldr	sp, [pc, #-0]	; 130 <_start+0x8>
     12c:	eaffffc4 	b	44 <__cs3_start_c>
     130:	3ffffff8 	.word	0x3ffffff8

00000134 <deregister_tm_clones>:
     134:	e92d4008 	push	{r3, lr}
     138:	e59f002c 	ldr	r0, [pc, #44]	; 16c <deregister_tm_clones+0x38>
     13c:	e59f302c 	ldr	r3, [pc, #44]	; 170 <deregister_tm_clones+0x3c>
     140:	e0603003 	rsb	r3, r0, r3
     144:	e3530006 	cmp	r3, #6
     148:	8a000001 	bhi	154 <deregister_tm_clones+0x20>
     14c:	e8bd4008 	pop	{r3, lr}
     150:	e12fff1e 	bx	lr
     154:	e59f3018 	ldr	r3, [pc, #24]	; 174 <deregister_tm_clones+0x40>
     158:	e3530000 	cmp	r3, #0
     15c:	0afffffa 	beq	14c <deregister_tm_clones+0x18>
     160:	e1a0e00f 	mov	lr, pc
     164:	e12fff13 	bx	r3
     168:	eafffff7 	b	14c <deregister_tm_clones+0x18>
     16c:	00026bc0 	.word	0x00026bc0
     170:	00026bc3 	.word	0x00026bc3
     174:	00000000 	.word	0x00000000

00000178 <register_tm_clones>:
     178:	e92d4008 	push	{r3, lr}
     17c:	e59f0034 	ldr	r0, [pc, #52]	; 1b8 <register_tm_clones+0x40>
     180:	e59f3034 	ldr	r3, [pc, #52]	; 1bc <register_tm_clones+0x44>
     184:	e0603003 	rsb	r3, r0, r3
     188:	e1a03143 	asr	r3, r3, #2
     18c:	e0833fa3 	add	r3, r3, r3, lsr #31
     190:	e1b010c3 	asrs	r1, r3, #1
     194:	1a000001 	bne	1a0 <register_tm_clones+0x28>
     198:	e8bd4008 	pop	{r3, lr}
     19c:	e12fff1e 	bx	lr
     1a0:	e59f2018 	ldr	r2, [pc, #24]	; 1c0 <register_tm_clones+0x48>
     1a4:	e3520000 	cmp	r2, #0
     1a8:	0afffffa 	beq	198 <register_tm_clones+0x20>
     1ac:	e1a0e00f 	mov	lr, pc
     1b0:	e12fff12 	bx	r2
     1b4:	eafffff7 	b	198 <register_tm_clones+0x20>
     1b8:	00026bc0 	.word	0x00026bc0
     1bc:	00026bc0 	.word	0x00026bc0
     1c0:	00000000 	.word	0x00000000

000001c4 <__do_global_dtors_aux>:
     1c4:	e92d4010 	push	{r4, lr}
     1c8:	e59f402c 	ldr	r4, [pc, #44]	; 1fc <__do_global_dtors_aux+0x38>
     1cc:	e5d43000 	ldrb	r3, [r4]
     1d0:	e3530000 	cmp	r3, #0
     1d4:	1a000006 	bne	1f4 <__do_global_dtors_aux+0x30>
     1d8:	ebffffd5 	bl	134 <deregister_tm_clones>
     1dc:	e59f301c 	ldr	r3, [pc, #28]	; 200 <__do_global_dtors_aux+0x3c>
     1e0:	e3530000 	cmp	r3, #0
     1e4:	159f0018 	ldrne	r0, [pc, #24]	; 204 <__do_global_dtors_aux+0x40>
     1e8:	1320f000 	nopne	{0}
     1ec:	e3a03001 	mov	r3, #1
     1f0:	e5c43000 	strb	r3, [r4]
     1f4:	e8bd4010 	pop	{r4, lr}
     1f8:	e12fff1e 	bx	lr
     1fc:	00026bc0 	.word	0x00026bc0
     200:	00000000 	.word	0x00000000
     204:	000266e0 	.word	0x000266e0

00000208 <frame_dummy>:
     208:	e92d4008 	push	{r3, lr}
     20c:	e59f3034 	ldr	r3, [pc, #52]	; 248 <frame_dummy+0x40>
     210:	e3530000 	cmp	r3, #0
     214:	159f0030 	ldrne	r0, [pc, #48]	; 24c <frame_dummy+0x44>
     218:	159f1030 	ldrne	r1, [pc, #48]	; 250 <frame_dummy+0x48>
     21c:	1320f000 	nopne	{0}
     220:	e59f002c 	ldr	r0, [pc, #44]	; 254 <frame_dummy+0x4c>
     224:	e5903000 	ldr	r3, [r0]
     228:	e3530000 	cmp	r3, #0
     22c:	0a000003 	beq	240 <frame_dummy+0x38>
     230:	e59f3020 	ldr	r3, [pc, #32]	; 258 <frame_dummy+0x50>
     234:	e3530000 	cmp	r3, #0
     238:	11a0e00f 	movne	lr, pc
     23c:	112fff13 	bxne	r3
     240:	e8bd4008 	pop	{r3, lr}
     244:	eaffffcb 	b	178 <register_tm_clones>
     248:	00000000 	.word	0x00000000
     24c:	000266e0 	.word	0x000266e0
     250:	00026bc4 	.word	0x00026bc4
     254:	00026740 	.word	0x00026740
     258:	00000000 	.word	0x00000000

0000025c <reset_dimensions>:

    }

}

void reset_dimensions () {
     25c:	e92d4010 	push	{r4, lr}
	x_start = 300;
     260:	e3064748 	movw	r4, #26440	; 0x6748
     264:	e3404002 	movt	r4, #2
     268:	e3a03f4b 	mov	r3, #300	; 0x12c
     26c:	e5843000 	str	r3, [r4]
	x_end = 320;
     270:	e3a03d05 	mov	r3, #320	; 0x140
     274:	e5843004 	str	r3, [r4, #4]
	y_start = rand() % (190 + 1 - 0) + 0;
     278:	eb00980f 	bl	262bc <rand>
     27c:	e30639e3 	movw	r3, #27107	; 0x69e3
     280:	e34a3b8f 	movt	r3, #43919	; 0xab8f
     284:	e0c32093 	smull	r2, r3, r3, r0
     288:	e0833000 	add	r3, r3, r0
     28c:	e1a02fc0 	asr	r2, r0, #31
     290:	e06233c3 	rsb	r3, r2, r3, asr #7
     294:	e0832083 	add	r2, r3, r3, lsl #1
     298:	e0633302 	rsb	r3, r3, r2, lsl #6
     29c:	e0630000 	rsb	r0, r3, r0
     2a0:	e5840008 	str	r0, [r4, #8]
	y_end = y_start+ (rand() % (120 + 1 - 40) + 40);
     2a4:	eb009804 	bl	262bc <rand>
     2a8:	e30b30fd 	movw	r3, #45309	; 0xb0fd
     2ac:	e3413948 	movt	r3, #6472	; 0x1948
     2b0:	e0c32093 	smull	r2, r3, r3, r0
     2b4:	e1a02fc0 	asr	r2, r0, #31
     2b8:	e06231c3 	rsb	r3, r2, r3, asr #3
     2bc:	e0833183 	add	r3, r3, r3, lsl #3
     2c0:	e0833183 	add	r3, r3, r3, lsl #3
     2c4:	e0630000 	rsb	r0, r3, r0
     2c8:	e2800028 	add	r0, r0, #40	; 0x28
     2cc:	e5942008 	ldr	r2, [r4, #8]
     2d0:	e0800002 	add	r0, r0, r2
     2d4:	e584000c 	str	r0, [r4, #12]
	off_screen = false;
     2d8:	e3063bdc 	movw	r3, #27612	; 0x6bdc
     2dc:	e3403002 	movt	r3, #2
     2e0:	e3a02000 	mov	r2, #0
     2e4:	e5c32000 	strb	r2, [r3]
	shift = 0;
     2e8:	e5832004 	str	r2, [r3, #4]
     2ec:	e8bd8010 	pop	{r4, pc}

000002f0 <swap>:
	//count++;
}

void swap(int *x,int *y){

    int temp = *x;
     2f0:	e5903000 	ldr	r3, [r0]

    *x = *y;
     2f4:	e5912000 	ldr	r2, [r1]
     2f8:	e5802000 	str	r2, [r0]

    *y = temp;
     2fc:	e5813000 	str	r3, [r1]
     300:	e12fff1e 	bx	lr

00000304 <wait_for_vsync>:

}
void wait_for_vsync(){
 volatile int *pixel_ctrl_ptr = 0xFF203020;
 register int status;
 *pixel_ctrl_ptr = 1;
     304:	e3033fff 	movw	r3, #16383	; 0x3fff
     308:	e34f3f20 	movt	r3, #65312	; 0xff20
     30c:	e3a02001 	mov	r2, #1
     310:	e5032fdf 	str	r2, [r3, #-4063]	; 0xfffff021
 status = *(pixel_ctrl_ptr +3);
     314:	e5133fd3 	ldr	r3, [r3, #-4051]	; 0xfffff02d
 while((status & 0x01) != 0){
     318:	e3130001 	tst	r3, #1
     31c:	012fff1e 	bxeq	lr
  status = *(pixel_ctrl_ptr+3);
     320:	e3032fff 	movw	r2, #16383	; 0x3fff
     324:	e34f2f20 	movt	r2, #65312	; 0xff20
     328:	e5123fd3 	ldr	r3, [r2, #-4051]	; 0xfffff02d
void wait_for_vsync(){
 volatile int *pixel_ctrl_ptr = 0xFF203020;
 register int status;
 *pixel_ctrl_ptr = 1;
 status = *(pixel_ctrl_ptr +3);
 while((status & 0x01) != 0){
     32c:	e3130001 	tst	r3, #1
     330:	1afffffc 	bne	328 <wait_for_vsync+0x24>
     334:	e12fff1e 	bx	lr

00000338 <plot_pixel>:

void plot_pixel(int x, int y, short int line_color)

{

    *(short int *)(pixel_buffer_start + (y << 10) + (x << 1)) = line_color;
     338:	e3063bdc 	movw	r3, #27612	; 0x6bdc
     33c:	e3403002 	movt	r3, #2
     340:	e5933008 	ldr	r3, [r3, #8]
     344:	e1a00080 	lsl	r0, r0, #1
     348:	e0831501 	add	r1, r3, r1, lsl #10
     34c:	e18120b0 	strh	r2, [r1, r0]
     350:	e12fff1e 	bx	lr

00000354 <draw_line>:

}

// code not shown for clear_screen() and draw_line() subroutines

void draw_line(int x0,int y0,int x1,int y1, int color){
     354:	e92d4ff0 	push	{r4, r5, r6, r7, r8, r9, r10, r11, lr}
     358:	e24dd014 	sub	sp, sp, #20
     35c:	e58d000c 	str	r0, [sp, #12]
     360:	e58d1008 	str	r1, [sp, #8]
     364:	e58d2004 	str	r2, [sp, #4]
     368:	e58d3000 	str	r3, [sp]

    int is_steep = abs(y1-y0) >abs(x1-x0);
     36c:	e0613003 	rsb	r3, r1, r3
     370:	e3530000 	cmp	r3, #0
     374:	b2633000 	rsblt	r3, r3, #0
     378:	e0602002 	rsb	r2, r0, r2
     37c:	e0228fc2 	eor	r8, r2, r2, asr #31
     380:	e0488fc2 	sub	r8, r8, r2, asr #31
     384:	e1530008 	cmp	r3, r8
     388:	d3a08000 	movle	r8, #0
     38c:	c3a08001 	movgt	r8, #1

    int y_step;

    if(is_steep){
     390:	e3580000 	cmp	r8, #0
     394:	0a000005 	beq	3b0 <draw_line+0x5c>

        swap(&x0,&y0);
     398:	e28d000c 	add	r0, sp, #12
     39c:	e28d1008 	add	r1, sp, #8
     3a0:	ebffffd2 	bl	2f0 <swap>

        swap(&x1,&y1);
     3a4:	e28d0004 	add	r0, sp, #4
     3a8:	e1a0100d 	mov	r1, sp
     3ac:	ebffffcf 	bl	2f0 <swap>

    }

    if(x0>x1){
     3b0:	e59d3004 	ldr	r3, [sp, #4]
     3b4:	e59d200c 	ldr	r2, [sp, #12]
     3b8:	e1520003 	cmp	r2, r3
     3bc:	da000005 	ble	3d8 <draw_line+0x84>

        swap(&x0,&x1);
     3c0:	e28d000c 	add	r0, sp, #12
     3c4:	e28d1004 	add	r1, sp, #4
     3c8:	ebffffc8 	bl	2f0 <swap>

        swap(&y0,&y1);
     3cc:	e28d0008 	add	r0, sp, #8
     3d0:	e1a0100d 	mov	r1, sp
     3d4:	ebffffc5 	bl	2f0 <swap>

    }

    int deltax = x1-x0;
     3d8:	e59d3004 	ldr	r3, [sp, #4]
     3dc:	e59d500c 	ldr	r5, [sp, #12]
     3e0:	e0659003 	rsb	r9, r5, r3

    int deltay = abs(y1-y0);
     3e4:	e59d2000 	ldr	r2, [sp]
     3e8:	e59d6008 	ldr	r6, [sp, #8]
     3ec:	e0667002 	rsb	r7, r6, r2
     3f0:	e3570000 	cmp	r7, #0
     3f4:	b2677000 	rsblt	r7, r7, #0

    int error = -(deltax/2);
     3f8:	e0894fa9 	add	r4, r9, r9, lsr #31
     3fc:	e1a040c4 	asr	r4, r4, #1
     400:	e2644000 	rsb	r4, r4, #0

    int y = y0;

    if(y0 < y1)

        y_step =  1;
     404:	e1520006 	cmp	r2, r6
     408:	d3e0b000 	mvnle	r11, #0
     40c:	c3a0b001 	movgt	r11, #1

       

    int i = x0;

    for(i = x0;i<=x1;i++){
     410:	e1530005 	cmp	r3, r5
     414:	ba00000e 	blt	454 <draw_line+0x100>

        if(is_steep){

            plot_pixel(y,i,color);
     418:	e1dda3f8 	ldrsh	r10, [sp, #56]	; 0x38

    int i = x0;

    for(i = x0;i<=x1;i++){

        if(is_steep){
     41c:	e3580000 	cmp	r8, #0

            plot_pixel(y,i,color);
     420:	11a00006 	movne	r0, r6
     424:	11a01005 	movne	r1, r5

        }else{

            plot_pixel(i,y,color);
     428:	01a00005 	moveq	r0, r5
     42c:	01a01006 	moveq	r1, r6
     430:	e1a0200a 	mov	r2, r10
     434:	ebffffbf 	bl	338 <plot_pixel>

        }

        error = error+deltay;

        if(error >= 0){
     438:	e0944007 	adds	r4, r4, r7

            y = y+y_step;
     43c:	5086600b 	addpl	r6, r6, r11

            error = error-deltax;
     440:	50694004 	rsbpl	r4, r9, r4

       

    int i = x0;

    for(i = x0;i<=x1;i++){
     444:	e2855001 	add	r5, r5, #1
     448:	e59d3004 	ldr	r3, [sp, #4]
     44c:	e1530005 	cmp	r3, r5
     450:	aafffff1 	bge	41c <draw_line+0xc8>

        }

    }

}
     454:	e28dd014 	add	sp, sp, #20
     458:	e8bd8ff0 	pop	{r4, r5, r6, r7, r8, r9, r10, r11, pc}

0000045c <clear_screen>:

	}
 
}

void clear_screen(){
     45c:	e92d4070 	push	{r4, r5, r6, lr}

    int i = 0;

    int j = 0;

    for(i = 0;i<240;i++){
     460:	e3a05000 	mov	r5, #0

	}
 
}

void clear_screen(){
     464:	e1a06005 	mov	r6, r5
     468:	ea000009 	b	494 <clear_screen+0x38>

    for(i = 0;i<240;i++){

        for(j = 0;j<320;j++){

            plot_pixel(j,i,0x0); //Plot all pixels as black
     46c:	e1a00004 	mov	r0, r4
     470:	e1a01005 	mov	r1, r5
     474:	e1a02006 	mov	r2, r6
     478:	ebffffae 	bl	338 <plot_pixel>

    int j = 0;

    for(i = 0;i<240;i++){

        for(j = 0;j<320;j++){
     47c:	e2844001 	add	r4, r4, #1
     480:	e3540d05 	cmp	r4, #320	; 0x140
     484:	1afffff8 	bne	46c <clear_screen+0x10>

    int i = 0;

    int j = 0;

    for(i = 0;i<240;i++){
     488:	e2855001 	add	r5, r5, #1
     48c:	e35500f0 	cmp	r5, #240	; 0xf0
     490:	08bd8070 	popeq	{r4, r5, r6, pc}

	}
 
}

void clear_screen(){
     494:	e1a04006 	mov	r4, r6
     498:	eafffff3 	b	46c <clear_screen+0x10>

0000049c <game_over>:
 while((status & 0x01) != 0){
  status = *(pixel_ctrl_ptr+3);
 }
}

void game_over(){
     49c:	e92d4038 	push	{r3, r4, r5, lr}
    
    y = 238;
     4a0:	e3063748 	movw	r3, #26440	; 0x6748
     4a4:	e3403002 	movt	r3, #2
     4a8:	e3a020ee 	mov	r2, #238	; 0xee
     4ac:	e5832010 	str	r2, [r3, #16]
    increment = 0;
     4b0:	e3062bdc 	movw	r2, #27612	; 0x6bdc
     4b4:	e3402002 	movt	r2, #2
     4b8:	e3a01000 	mov	r1, #0
     4bc:	e582100c 	str	r1, [r2, #12]

    x_start = 300;
     4c0:	e3a00f4b 	mov	r0, #300	; 0x12c
     4c4:	e5830000 	str	r0, [r3]
    x_end = 320;
     4c8:	e3a00d05 	mov	r0, #320	; 0x140
     4cc:	e5830004 	str	r0, [r3, #4]
    y_start = 50;
     4d0:	e3a00032 	mov	r0, #50	; 0x32
     4d4:	e5830008 	str	r0, [r3, #8]
    y_end = 100;
     4d8:	e3a00064 	mov	r0, #100	; 0x64
     4dc:	e583000c 	str	r0, [r3, #12]

    shift = 0;
     4e0:	e5821004 	str	r1, [r2, #4]
    count = 0;
     4e4:	e5821010 	str	r1, [r2, #16]
    
    while(lost){
     4e8:	e1a04002 	mov	r4, r2
     4ec:	e1a05001 	mov	r5, r1
 while((status & 0x01) != 0){
  status = *(pixel_ctrl_ptr+3);
 }
}

void game_over(){
     4f0:	e300ea48 	movw	lr, #2632	; 0xa48
     4f4:	e340e000 	movt	lr, #0
    y_end = 100;

    shift = 0;
    count = 0;
    
    while(lost){
     4f8:	ea000012 	b	548 <game_over+0xac>
        volatile short * pixelbuf = 0xc8000000;
        int q, w;
        for (q=0; q<240; q++)
            for (w=0; w<320; w++)
            *(pixelbuf + (w<<0) + (q<<9)) = test123[q][w];
     4fc:	e1f210b2 	ldrh	r1, [r2, #2]!
     500:	e0c310b2 	strh	r1, [r3], #2
    
    while(lost){
        volatile short * pixelbuf = 0xc8000000;
        int q, w;
        for (q=0; q<240; q++)
            for (w=0; w<320; w++)
     504:	e1530000 	cmp	r3, r0
     508:	1afffffb 	bne	4fc <game_over+0x60>
    count = 0;
    
    while(lost){
        volatile short * pixelbuf = 0xc8000000;
        int q, w;
        for (q=0; q<240; q++)
     50c:	e28cc001 	add	r12, r12, #1
     510:	e35c00f0 	cmp	r12, #240	; 0xf0
     514:	1a000001 	bne	520 <game_over+0x84>
     518:	ea00000a 	b	548 <game_over+0xac>
    y_end = 100;

    shift = 0;
    count = 0;
    
    while(lost){
     51c:	e1a0c005 	mov	r12, r5
        volatile short * pixelbuf = 0xc8000000;
        int q, w;
        for (q=0; q<240; q++)
            for (w=0; w<320; w++)
            *(pixelbuf + (w<<0) + (q<<9)) = test123[q][w];
     520:	e1a0048c 	lsl	r0, r12, #9
 while((status & 0x01) != 0){
  status = *(pixel_ctrl_ptr+3);
 }
}

void game_over(){
     524:	e08c210c 	add	r2, r12, r12, lsl #2
     528:	e08e2382 	add	r2, lr, r2, lsl #7
     52c:	e2422002 	sub	r2, r2, #2
     530:	e1a0350c 	lsl	r3, r12, #10
     534:	e2833332 	add	r3, r3, #-939524096	; 0xc8000000
     538:	e2800319 	add	r0, r0, #1677721600	; 0x64000000
     53c:	e2800d05 	add	r0, r0, #320	; 0x140
     540:	e1a00080 	lsl	r0, r0, #1
     544:	eaffffec 	b	4fc <game_over+0x60>
    y_end = 100;

    shift = 0;
    count = 0;
    
    while(lost){
     548:	e5943014 	ldr	r3, [r4, #20]
     54c:	e3530000 	cmp	r3, #0
     550:	1afffff1 	bne	51c <game_over+0x80>
        int q, w;
        for (q=0; q<240; q++)
            for (w=0; w<320; w++)
            *(pixelbuf + (w<<0) + (q<<9)) = test123[q][w];
    }
    clear_screen();
     554:	ebffffc0 	bl	45c <clear_screen>
     558:	e8bd8038 	pop	{r3, r4, r5, pc}

0000055c <set_A9_IRQ_stack>:
void set_A9_IRQ_stack(void)	{
	int stack, mode;
	stack = A9_ONCHIP_END - 7; // top of A9 onchip memory, aligned to 8 bytes
	/* change processor to IRQ mode with interrupts disabled */
	mode = INT_DISABLE | IRQ_MODE;
	asm("msr cpsr, %[ps]" : : [ps] "r"(mode));
     55c:	e3a030d2 	mov	r3, #210	; 0xd2
     560:	e129f003 	msr	CPSR_fc, r3
	/* set banked stack pointer */
	asm("mov sp, %[ps]" : : [ps] "r"(stack));
     564:	e3e03007 	mvn	r3, #7
     568:	e1a0d003 	mov	sp, r3
	/* go back to SVC mode before executing subroutine return! */
	mode = INT_DISABLE | SVC_MODE;
	asm("msr cpsr, %[ps]" : : [ps] "r"(mode));
     56c:	e3a030d3 	mov	r3, #211	; 0xd3
     570:	e129f003 	msr	CPSR_fc, r3
     574:	e12fff1e 	bx	lr

00000578 <config_GIC>:
}

void config_GIC(void)	{
	int address; // used to calculate register addresses
	/* configure the HPS timer interrupt */
	*((int *)0xFFFED8C4) = 0x01000000;
     578:	e3e03a12 	mvn	r3, #73728	; 0x12000
     57c:	e3a02401 	mov	r2, #16777216	; 0x1000000
     580:	e503273b 	str	r2, [r3, #-1851]	; 0xfffff8c5
	*((int *)0xFFFED118) = 0x00000080;
     584:	e3a02080 	mov	r2, #128	; 0x80
     588:	e5032ee7 	str	r2, [r3, #-3815]	; 0xfffff119
	/* configure the FPGA interval timer and KEYs interrupts */
	*((int *)0xFFFED848) = 0x00000101;
     58c:	e2822081 	add	r2, r2, #129	; 0x81
     590:	e50327b7 	str	r2, [r3, #-1975]	; 0xfffff849
	*((int *)0xFFFED108) = 0x00000300;
     594:	e3a02c03 	mov	r2, #768	; 0x300
     598:	e5032ef7 	str	r2, [r3, #-3831]	; 0xfffff109
	// Set Interrupt Priority Mask Register (ICCPMR). Enable interrupts of all
	// priorities
	address = MPCORE_GIC_CPUIF + ICCPMR;
	*((int *)address) = 0xFFFF;
     59c:	e3e01a13 	mvn	r1, #77824	; 0x13000
     5a0:	e30f2fff 	movw	r2, #65535	; 0xffff
     5a4:	e5012efb 	str	r2, [r1, #-3835]	; 0xfffff105
	// Set CPU Interface Control Register (ICCICR). Enable signaling of
	// interrupts
	address = MPCORE_GIC_CPUIF + ICCICR;
	*((int *)address) = ENABLE;
     5a8:	e3a02001 	mov	r2, #1
     5ac:	e5012eff 	str	r2, [r1, #-3839]	; 0xfffff101
	// Configure the Distributor Control Register (ICDDCR) to send pending
	// interrupts to CPUs
	address = MPCORE_GIC_DIST + ICDDCR;
	*((int *)address) = ENABLE;
     5b0:	e5032fff 	str	r2, [r3, #-4095]	; 0xfffff001
     5b4:	e12fff1e 	bx	lr

000005b8 <enable_A9_interrupts>:
/*
* Turn on interrupts in the ARM processor
*/
void enable_A9_interrupts(void)	{
	int status = SVC_MODE | INT_ENABLE;
	asm("msr cpsr, %[ps]" : : [ps] "r"(status));
     5b8:	e3a03053 	mov	r3, #83	; 0x53
     5bc:	e129f003 	msr	CPSR_fc, r3
     5c0:	e12fff1e 	bx	lr

000005c4 <config_KEYs>:


/* setup the KEY interrupts in the FPGA */
void config_KEYs()	{
	volatile int * KEY_ptr = (int *)KEY_BASE; // pushbutton KEY address
	*(KEY_ptr + 2) = 0x3; // enable interrupts for KEY[1]
     5c4:	e3a03000 	mov	r3, #0
     5c8:	e34f3f20 	movt	r3, #65312	; 0xff20
     5cc:	e3a02003 	mov	r2, #3
     5d0:	e5832058 	str	r2, [r3, #88]	; 0x58
     5d4:	e12fff1e 	bx	lr

000005d8 <config_interval_timer>:
    volatile int * interval_timer_ptr =
        (int *)TIMER_BASE; // interal timer base address

    /* set the interval timer period for scrolling the HEX displays */
    int counter                 = 1000000; // 1/(100 MHz) x 5x10^6 = 50 msec
    *(interval_timer_ptr + 0x2) = (counter & 0xFFFF);
     5d8:	e3a03a02 	mov	r3, #8192	; 0x2000
     5dc:	e34f3f20 	movt	r3, #65312	; 0xff20
     5e0:	e3042240 	movw	r2, #16960	; 0x4240
     5e4:	e5832008 	str	r2, [r3, #8]
    *(interval_timer_ptr + 0x3) = (counter >> 16) & 0xFFFF;
     5e8:	e3a0200f 	mov	r2, #15
     5ec:	e583200c 	str	r2, [r3, #12]

    /* start interval timer, enable its interrupts */
    *(interval_timer_ptr + 1) = 0x7; // STOP = 0, START = 1, CONT = 1, ITO = 1
     5f0:	e3a02007 	mov	r2, #7
     5f4:	e5832004 	str	r2, [r3, #4]
     5f8:	e12fff1e 	bx	lr

000005fc <main>:

bool off_screen = false;

	volatile int *HEX_3_0_pt = (int *)0xFF200020;

int main(void){
     5fc:	e92d47f0 	push	{r4, r5, r6, r7, r8, r9, r10, lr}
     600:	e24dd008 	sub	sp, sp, #8

    volatile int *pixel_ctrl_ptr = (int *)0xFF203020;
	//volatile int * MPcore_private_timer_ptr = (int *)MPCORE_PRIV_TIMER;
	
	set_A9_IRQ_stack(); // initialize the stack pointer for IRQ mode
     604:	ebffffd4 	bl	55c <set_A9_IRQ_stack>
	config_GIC(); // configure the general interrupt controller
     608:	ebffffda 	bl	578 <config_GIC>
	config_KEYs(); // configure pushbutton KEYs to generate interrupts
     60c:	ebffffec 	bl	5c4 <config_KEYs>
	config_interval_timer();
     610:	ebfffff0 	bl	5d8 <config_interval_timer>
	enable_A9_interrupts(); // enable interrupts
     614:	ebffffe7 	bl	5b8 <enable_A9_interrupts>
  //  *(MPcore_private_timer_ptr + 2) = 0b011;   // mode = 1 (auto), enable = 1
	int count = 0;
	
    /* Read location of the pixel buffer from the pixel buffer controller */

    pixel_buffer_start = *pixel_ctrl_ptr;
     618:	e3033fff 	movw	r3, #16383	; 0x3fff
     61c:	e34f3f20 	movt	r3, #65312	; 0xff20
     620:	e5132fdf 	ldr	r2, [r3, #-4063]	; 0xfffff021
     624:	e3063bdc 	movw	r3, #27612	; 0x6bdc
     628:	e3403002 	movt	r3, #2
     62c:	e5832008 	str	r2, [r3, #8]

    clear_screen();
     630:	ebffff89 	bl	45c <clear_screen>

    draw_line(40, y, 100, y, 0x001F);   // this line is blue
     634:	e3063748 	movw	r3, #26440	; 0x6748
     638:	e3403002 	movt	r3, #2
     63c:	e5933010 	ldr	r3, [r3, #16]
     640:	e3a0201f 	mov	r2, #31
     644:	e58d2000 	str	r2, [sp]
     648:	e3a00028 	mov	r0, #40	; 0x28
     64c:	e1a01003 	mov	r1, r3
     650:	e3a02064 	mov	r2, #100	; 0x64
     654:	ebffff3e 	bl	354 <draw_line>
    

    while(1){
		
        if(lost){
     658:	e3066bdc 	movw	r6, #27612	; 0x6bdc
     65c:	e3406002 	movt	r6, #2
        } */
    
        
	  //drawing obstacles
	   if (!off_screen) {
		  for(i = y_start;i<y_end;i++){
     660:	e3065748 	movw	r5, #26440	; 0x6748
     664:	e3405002 	movt	r5, #2

			for(j = x_start-shift;j<x_end-shift;j++){

				plot_pixel(j,i,0x0); 
     668:	e3a08000 	mov	r8, #0
		 
		 for(i = y_start;i<y_end;i++){

			for(j = x_start-shift;j<x_end-shift;j++){

				plot_pixel(j,i,0x07FF); 
     66c:	e30077ff 	movw	r7, #2047	; 0x7ff
		
		 shift= shift+2;
		 
		 //check is off screen
		 if (x_end-shift < 0) {
			 off_screen = true;
     670:	e3a0a001 	mov	r10, #1
    draw_line(40, y, 100, y, 0x001F);   // this line is blue
    

    while(1){
		
        if(lost){
     674:	e5963014 	ldr	r3, [r6, #20]
     678:	e3530000 	cmp	r3, #0
     67c:	0a000000 	beq	684 <main+0x88>
            game_over();
     680:	ebffff85 	bl	49c <game_over>
            draw_line(40, y, 100, y, 0x001F);
        } */
    
        
	  //drawing obstacles
	   if (!off_screen) {
     684:	e5d63000 	ldrb	r3, [r6]
     688:	e3530000 	cmp	r3, #0
     68c:	1a000039 	bne	778 <main+0x17c>
		  for(i = y_start;i<y_end;i++){
     690:	e5959008 	ldr	r9, [r5, #8]
     694:	e595300c 	ldr	r3, [r5, #12]
     698:	e1590003 	cmp	r9, r3
     69c:	aa000014 	bge	6f4 <main+0xf8>

			for(j = x_start-shift;j<x_end-shift;j++){
     6a0:	e5963004 	ldr	r3, [r6, #4]
     6a4:	e5954000 	ldr	r4, [r5]
     6a8:	e0634004 	rsb	r4, r3, r4
     6ac:	e5952004 	ldr	r2, [r5, #4]
     6b0:	e0633002 	rsb	r3, r3, r2
     6b4:	e1540003 	cmp	r4, r3
     6b8:	aa000009 	bge	6e4 <main+0xe8>

				plot_pixel(j,i,0x0); 
     6bc:	e1a00004 	mov	r0, r4
     6c0:	e1a01009 	mov	r1, r9
     6c4:	e1a02008 	mov	r2, r8
     6c8:	ebffff1a 	bl	338 <plot_pixel>
        
	  //drawing obstacles
	   if (!off_screen) {
		  for(i = y_start;i<y_end;i++){

			for(j = x_start-shift;j<x_end-shift;j++){
     6cc:	e2844001 	add	r4, r4, #1
     6d0:	e5952004 	ldr	r2, [r5, #4]
     6d4:	e5963004 	ldr	r3, [r6, #4]
     6d8:	e0633002 	rsb	r3, r3, r2
     6dc:	e1530004 	cmp	r3, r4
     6e0:	cafffff5 	bgt	6bc <main+0xc0>
        } */
    
        
	  //drawing obstacles
	   if (!off_screen) {
		  for(i = y_start;i<y_end;i++){
     6e4:	e2899001 	add	r9, r9, #1
     6e8:	e595300c 	ldr	r3, [r5, #12]
     6ec:	e1530009 	cmp	r3, r9
     6f0:	caffffea 	bgt	6a0 <main+0xa4>

			}

		}
		
		 shift= shift+2;
     6f4:	e5963004 	ldr	r3, [r6, #4]
     6f8:	e2833002 	add	r3, r3, #2
     6fc:	e5863004 	str	r3, [r6, #4]
		 
		 //check is off screen
		 if (x_end-shift < 0) {
     700:	e5952004 	ldr	r2, [r5, #4]
     704:	e0633002 	rsb	r3, r3, r2
     708:	e3530000 	cmp	r3, #0
			 off_screen = true;
     70c:	b5c6a000 	strblt	r10, [r6]
		 }
		 
		 for(i = y_start;i<y_end;i++){
     710:	e5959008 	ldr	r9, [r5, #8]
     714:	e595300c 	ldr	r3, [r5, #12]
     718:	e1590003 	cmp	r9, r3
     71c:	aa000016 	bge	77c <main+0x180>

			for(j = x_start-shift;j<x_end-shift;j++){
     720:	e5963004 	ldr	r3, [r6, #4]
     724:	e5954000 	ldr	r4, [r5]
     728:	e0634004 	rsb	r4, r3, r4
     72c:	e5952004 	ldr	r2, [r5, #4]
     730:	e0633002 	rsb	r3, r3, r2
     734:	e1540003 	cmp	r4, r3
     738:	aa000009 	bge	764 <main+0x168>

				plot_pixel(j,i,0x07FF); 
     73c:	e1a00004 	mov	r0, r4
     740:	e1a01009 	mov	r1, r9
     744:	e1a02007 	mov	r2, r7
     748:	ebfffefa 	bl	338 <plot_pixel>
			 off_screen = true;
		 }
		 
		 for(i = y_start;i<y_end;i++){

			for(j = x_start-shift;j<x_end-shift;j++){
     74c:	e2844001 	add	r4, r4, #1
     750:	e5952004 	ldr	r2, [r5, #4]
     754:	e5963004 	ldr	r3, [r6, #4]
     758:	e0633002 	rsb	r3, r3, r2
     75c:	e1530004 	cmp	r3, r4
     760:	cafffff5 	bgt	73c <main+0x140>
		 //check is off screen
		 if (x_end-shift < 0) {
			 off_screen = true;
		 }
		 
		 for(i = y_start;i<y_end;i++){
     764:	e2899001 	add	r9, r9, #1
     768:	e595300c 	ldr	r3, [r5, #12]
     76c:	e1530009 	cmp	r3, r9
     770:	caffffea 	bgt	720 <main+0x124>
     774:	ea000000 	b	77c <main+0x180>
           // ;                                // wait for timer to expire
		
		//*(MPcore_private_timer_ptr + 3) = 1; // reset timer flag bit
	  }
	  else {
			reset_dimensions();
     778:	ebfffeb7 	bl	25c <reset_dimensions>
	  }
	
	  wait_for_vsync(); 
     77c:	ebfffee0 	bl	304 <wait_for_vsync>
	//secondDigit = (count / 10) - (firstDigit * 10);
	//thirdDigit = count - (firstDigit * 100 + secondDigit*10);
	
	//*HEX_3_0_pt = seg7[thirdDigit] | seg7[secondDigit] <<8 | seg7[firstDigit] << 16;

	}
     780:	eaffffbb 	b	674 <main+0x78>

00000784 <pushbutton_ISR>:
{
    volatile int * KEY_ptr = (int *)KEY_BASE;
    int            press;


    press          = *(KEY_ptr + 3); // read the pushbutton interrupt register
     784:	e3a03000 	mov	r3, #0
     788:	e34f3f20 	movt	r3, #65312	; 0xff20
     78c:	e593205c 	ldr	r2, [r3, #92]	; 0x5c
	if(increment == -1){
     790:	e3063bdc 	movw	r3, #27612	; 0x6bdc
     794:	e3403002 	movt	r3, #2
     798:	e593300c 	ldr	r3, [r3, #12]
     79c:	e3730001 	cmn	r3, #1
     7a0:	1a000004 	bne	7b8 <pushbutton_ISR+0x34>
		increment = 1;
     7a4:	e3063bdc 	movw	r3, #27612	; 0x6bdc
     7a8:	e3403002 	movt	r3, #2
     7ac:	e3a01001 	mov	r1, #1
     7b0:	e583100c 	str	r1, [r3, #12]
     7b4:	ea000015 	b	810 <pushbutton_ISR+0x8c>
	}else if(increment == 1){
     7b8:	e3530001 	cmp	r3, #1
     7bc:	1a000004 	bne	7d4 <pushbutton_ISR+0x50>
		increment = -1;
     7c0:	e3063bdc 	movw	r3, #27612	; 0x6bdc
     7c4:	e3403002 	movt	r3, #2
     7c8:	e3e01000 	mvn	r1, #0
     7cc:	e583100c 	str	r1, [r3, #12]
     7d0:	ea00000e 	b	810 <pushbutton_ISR+0x8c>
	}
	else if(y >= 238){
     7d4:	e3063748 	movw	r3, #26440	; 0x6748
     7d8:	e3403002 	movt	r3, #2
     7dc:	e5933010 	ldr	r3, [r3, #16]
     7e0:	e35300ed 	cmp	r3, #237	; 0xed
     7e4:	da000004 	ble	7fc <pushbutton_ISR+0x78>
		increment = -1;
     7e8:	e3063bdc 	movw	r3, #27612	; 0x6bdc
     7ec:	e3403002 	movt	r3, #2
     7f0:	e3e01000 	mvn	r1, #0
     7f4:	e583100c 	str	r1, [r3, #12]
     7f8:	ea000004 	b	810 <pushbutton_ISR+0x8c>
	}else if(y <= 0){
     7fc:	e3530000 	cmp	r3, #0
		increment = 1;
     800:	d3063bdc 	movwle	r3, #27612	; 0x6bdc
     804:	d3403002 	movtle	r3, #2
     808:	d3a01001 	movle	r1, #1
     80c:	d583100c 	strle	r1, [r3, #12]
	}
    
    if(lost){
     810:	e3063bdc 	movw	r3, #27612	; 0x6bdc
     814:	e3403002 	movt	r3, #2
     818:	e5933014 	ldr	r3, [r3, #20]
     81c:	e3530000 	cmp	r3, #0
        lost = 0;
     820:	13063bdc 	movwne	r3, #27612	; 0x6bdc
     824:	13403002 	movtne	r3, #2
     828:	13a01000 	movne	r1, #0
     82c:	15831014 	strne	r1, [r3, #20]
    }
    
    *(KEY_ptr + 3) = press;          // Clear the interrupt
     830:	e3a03000 	mov	r3, #0
     834:	e34f3f20 	movt	r3, #65312	; 0xff20
     838:	e583205c 	str	r2, [r3, #92]	; 0x5c
     83c:	e12fff1e 	bx	lr

00000840 <interval_timer_ISR>:

    return;
}

void interval_timer_ISR()	{
     840:	e92d41f0 	push	{r4, r5, r6, r7, r8, lr}
     844:	e24dd008 	sub	sp, sp, #8
	
	int firstDigit;
	int secondDigit;
	int thirdDigit;

    *(interval_timer_ptr) = 0; // Clear the interrupt
     848:	e3a03a02 	mov	r3, #8192	; 0x2000
     84c:	e34f3f20 	movt	r3, #65312	; 0xff20
     850:	e3a02000 	mov	r2, #0
     854:	e5832000 	str	r2, [r3]
    if(!lost){
     858:	e3063bdc 	movw	r3, #27612	; 0x6bdc
     85c:	e3403002 	movt	r3, #2
     860:	e5933014 	ldr	r3, [r3, #20]
     864:	e1530002 	cmp	r3, r2
     868:	1a00005e 	bne	9e8 <interval_timer_ISR+0x1a8>
            count++;
     86c:	e3065bdc 	movw	r5, #27612	; 0x6bdc
     870:	e3405002 	movt	r5, #2
     874:	e5953010 	ldr	r3, [r5, #16]
     878:	e2833001 	add	r3, r3, #1
     87c:	e5853010 	str	r3, [r5, #16]
            firstDigit = (count/100)/100;
     880:	e3082bad 	movw	r2, #35757	; 0x8bad
     884:	e34628db 	movt	r2, #26843	; 0x68db
     888:	e0c21392 	smull	r1, r2, r2, r3
     88c:	e1a01fc3 	asr	r1, r3, #31
     890:	e0612642 	rsb	r2, r1, r2, asr #12
            secondDigit = ((count/100) / 10) - (firstDigit * 10);
     894:	e3040dd3 	movw	r0, #19923	; 0x4dd3
     898:	e3410062 	movt	r0, #4194	; 0x1062
     89c:	e0c08390 	smull	r8, r0, r0, r3
     8a0:	e0610340 	rsb	r0, r1, r0, asr #6
     8a4:	e3e0c009 	mvn	r12, #9
     8a8:	e020029c 	mla	r0, r12, r2, r0
            thirdDigit = (count/100) - (firstDigit * 100 + secondDigit*10);
            *HEX_3_0_pt = seg7[thirdDigit] | seg7[secondDigit] <<8 | seg7[firstDigit] << 16;
     8ac:	e3064748 	movw	r4, #26440	; 0x6748
     8b0:	e3404002 	movt	r4, #2
     8b4:	e5946014 	ldr	r6, [r4, #20]
     8b8:	e084e100 	add	lr, r4, r0, lsl #2
     8bc:	e59ee018 	ldr	lr, [lr, #24]
     8c0:	e0847102 	add	r7, r4, r2, lsl #2
     8c4:	e5977018 	ldr	r7, [r7, #24]
     8c8:	e1a07807 	lsl	r7, r7, #16
     8cc:	e187740e 	orr	r7, r7, lr, lsl #8
    *(interval_timer_ptr) = 0; // Clear the interrupt
    if(!lost){
            count++;
            firstDigit = (count/100)/100;
            secondDigit = ((count/100) / 10) - (firstDigit * 10);
            thirdDigit = (count/100) - (firstDigit * 100 + secondDigit*10);
     8d0:	e308e51f 	movw	lr, #34079	; 0x851f
     8d4:	e345e1eb 	movt	lr, #20971	; 0x51eb
     8d8:	e0c3839e 	smull	r8, r3, lr, r3
     8dc:	e06112c3 	rsb	r1, r1, r3, asr #5
            *HEX_3_0_pt = seg7[thirdDigit] | seg7[secondDigit] <<8 | seg7[firstDigit] << 16;
     8e0:	e3e03063 	mvn	r3, #99	; 0x63
     8e4:	e0020293 	mul	r2, r3, r2
     8e8:	e020209c 	mla	r0, r12, r0, r2
     8ec:	e0801001 	add	r1, r0, r1
     8f0:	e0841101 	add	r1, r4, r1, lsl #2
     8f4:	e5912018 	ldr	r2, [r1, #24]
     8f8:	e1873002 	orr	r3, r7, r2
     8fc:	e5863000 	str	r3, [r6]
            
        
            draw_line(40, y, 100, y, 0x0);
     900:	e5943010 	ldr	r3, [r4, #16]
     904:	e3a02000 	mov	r2, #0
     908:	e58d2000 	str	r2, [sp]
     90c:	e3a00028 	mov	r0, #40	; 0x28
     910:	e1a01003 	mov	r1, r3
     914:	e3a02064 	mov	r2, #100	; 0x64
     918:	ebfffe8d 	bl	354 <draw_line>

            //Changing direction
            y = y+increment;
     91c:	e5942010 	ldr	r2, [r4, #16]
     920:	e595300c 	ldr	r3, [r5, #12]
     924:	e0823003 	add	r3, r2, r3
     928:	e5843010 	str	r3, [r4, #16]
            if(y >= 238){
     92c:	e35300ed 	cmp	r3, #237	; 0xed
            increment = 0;
     930:	c3a01000 	movgt	r1, #0
     934:	c585100c 	strgt	r1, [r5, #12]
     938:	ca000004 	bgt	950 <interval_timer_ISR+0x110>
            }else if(y <= 0){
     93c:	e3530000 	cmp	r3, #0
            increment = 0;
     940:	d3062bdc 	movwle	r2, #27612	; 0x6bdc
     944:	d3402002 	movtle	r2, #2
     948:	d3a01000 	movle	r1, #0
     94c:	d582100c 	strle	r1, [r2, #12]
            } 

            if(((x_start-shift >= 40 && x_start-shift <= 100) || (x_end-shift >= 40 && x_end-shift <= 100)) && 
     950:	e3062bdc 	movw	r2, #27612	; 0x6bdc
     954:	e3402002 	movt	r2, #2
     958:	e5921004 	ldr	r1, [r2, #4]
     95c:	e3062748 	movw	r2, #26440	; 0x6748
     960:	e3402002 	movt	r2, #2
     964:	e5922000 	ldr	r2, [r2]
     968:	e0612002 	rsb	r2, r1, r2
     96c:	e2422028 	sub	r2, r2, #40	; 0x28
     970:	e352003c 	cmp	r2, #60	; 0x3c
     974:	9a000006 	bls	994 <interval_timer_ISR+0x154>
     978:	e3062748 	movw	r2, #26440	; 0x6748
     97c:	e3402002 	movt	r2, #2
     980:	e5922004 	ldr	r2, [r2, #4]
     984:	e0611002 	rsb	r1, r1, r2
     988:	e2411028 	sub	r1, r1, #40	; 0x28
     98c:	e351003c 	cmp	r1, #60	; 0x3c
     990:	8a00000e 	bhi	9d0 <interval_timer_ISR+0x190>
     994:	e3062748 	movw	r2, #26440	; 0x6748
     998:	e3402002 	movt	r2, #2
     99c:	e5922008 	ldr	r2, [r2, #8]
     9a0:	e1530002 	cmp	r3, r2
     9a4:	ba000009 	blt	9d0 <interval_timer_ISR+0x190>
               (y >= y_start && y<= y_end) ){
     9a8:	e3062748 	movw	r2, #26440	; 0x6748
     9ac:	e3402002 	movt	r2, #2
     9b0:	e592200c 	ldr	r2, [r2, #12]
     9b4:	e1530002 	cmp	r3, r2
     9b8:	ca000004 	bgt	9d0 <interval_timer_ISR+0x190>
                //draw_line(40, y, 100, y, 0x7E0);
                lost = 1;
     9bc:	e3063bdc 	movw	r3, #27612	; 0x6bdc
     9c0:	e3403002 	movt	r3, #2
     9c4:	e3a02001 	mov	r2, #1
     9c8:	e5832014 	str	r2, [r3, #20]
     9cc:	ea000005 	b	9e8 <interval_timer_ISR+0x1a8>
            }
            else{
                draw_line(40, y, 100, y, 0x001F);
     9d0:	e3a0201f 	mov	r2, #31
     9d4:	e58d2000 	str	r2, [sp]
     9d8:	e3a00028 	mov	r0, #40	; 0x28
     9dc:	e1a01003 	mov	r1, r3
     9e0:	e3a02064 	mov	r2, #100	; 0x64
     9e4:	ebfffe5a 	bl	354 <draw_line>
            }
    }

    return;
}
     9e8:	e28dd008 	add	sp, sp, #8
     9ec:	e8bd81f0 	pop	{r4, r5, r6, r7, r8, pc}

000009f0 <__cs3_isr_irq>:

// Define the IRQ exception handler
void __attribute__((interrupt)) __cs3_isr_irq(void)
{
     9f0:	e24ee004 	sub	lr, lr, #4
     9f4:	e92d503f 	push	{r0, r1, r2, r3, r4, r5, r12, lr}
    // Read the ICCIAR from the processor interface
    int address = MPCORE_GIC_CPUIF + ICCIAR;
    int int_ID  = *((int *)address);
     9f8:	e3e03a13 	mvn	r3, #77824	; 0x13000
     9fc:	e5134ef3 	ldr	r4, [r3, #-3827]	; 0xfffff10d
	
    if (int_ID == KEYS_IRQ) // check if interrupt is from the KEYs
     a00:	e3540049 	cmp	r4, #73	; 0x49
     a04:	1a000001 	bne	a10 <__cs3_isr_irq+0x20>
        pushbutton_ISR();
     a08:	ebffff5d 	bl	784 <pushbutton_ISR>
     a0c:	ea000004 	b	a24 <__cs3_isr_irq+0x34>
	else if (int_ID == INTERVAL_TIMER_IRQ) // check if interrupt is from the Altera timer
     a10:	e3540048 	cmp	r4, #72	; 0x48
     a14:	1a000001 	bne	a20 <__cs3_isr_irq+0x30>
        interval_timer_ISR();
     a18:	ebffff88 	bl	840 <interval_timer_ISR>
     a1c:	ea000000 	b	a24 <__cs3_isr_irq+0x34>
     a20:	eafffffe 	b	a20 <__cs3_isr_irq+0x30>
        while (1)
            ; // if unexpected, then stay here

    // Write to the End of Interrupt Register (ICCEOIR)
    address           = MPCORE_GIC_CPUIF + ICCEOIR;
    *((int *)address) = int_ID;
     a24:	e3e03a13 	mvn	r3, #77824	; 0x13000
     a28:	e5034eef 	str	r4, [r3, #-3823]	; 0xfffff111
     a2c:	e8fd903f 	ldm	sp!, {r0, r1, r2, r3, r4, r5, r12, pc}^

00000a30 <__cs3_reset>:
    return;
}

// Define the remaining exception handlers
void __attribute__((interrupt)) __cs3_reset(void)
{
     a30:	eafffffe 	b	a30 <__cs3_reset>

00000a34 <__cs3_isr_undef>:
    while (1)
        ;
}

void __attribute__((interrupt)) __cs3_isr_undef(void)
{
     a34:	eafffffe 	b	a34 <__cs3_isr_undef>

00000a38 <__cs3_isr_swi>:
    while (1)
        ;
}

void __attribute__((interrupt)) __cs3_isr_swi(void)
{
     a38:	eafffffe 	b	a38 <__cs3_isr_swi>

00000a3c <__cs3_isr_pabort>:
    while (1)
        ;
}

void __attribute__((interrupt)) __cs3_isr_pabort(void)
{
     a3c:	eafffffe 	b	a3c <__cs3_isr_pabort>

00000a40 <__cs3_isr_dabort>:
    while (1)
        ;
}

void __attribute__((interrupt)) __cs3_isr_dabort(void)
{
     a40:	eafffffe 	b	a40 <__cs3_isr_dabort>

00000a44 <__cs3_isr_fiq>:
    while (1)
        ;
}

void __attribute__((interrupt)) __cs3_isr_fiq(void)
{
     a44:	eafffffe 	b	a44 <__cs3_isr_fiq>

00000a48 <test123>:
     a48:	1e050004 	.word	0x1e050004
	...
    4d18:	ffffffff 	.word	0xffffffff
    4d1c:	ffffffff 	.word	0xffffffff
    4d20:	ffffffff 	.word	0xffffffff
    4d24:	ffffffff 	.word	0xffffffff
    4d28:	ffffffff 	.word	0xffffffff
    4d2c:	ffffffff 	.word	0xffffffff
    4d30:	ffffffff 	.word	0xffffffff
    4d34:	ffffffff 	.word	0xffffffff
    4d38:	ffffffff 	.word	0xffffffff
    4d3c:	ffffffff 	.word	0xffffffff
    4d40:	ffffffff 	.word	0xffffffff
    4d44:	ffffffff 	.word	0xffffffff
    4d48:	ffffffff 	.word	0xffffffff
    4d4c:	ffffffff 	.word	0xffffffff
    4d50:	ffffffff 	.word	0xffffffff
    4d54:	ffffffff 	.word	0xffffffff
    4d58:	ffffffff 	.word	0xffffffff
    4d5c:	ffffffff 	.word	0xffffffff
    4d60:	ffffffff 	.word	0xffffffff
    4d64:	ffffffff 	.word	0xffffffff
    4d68:	ffffffff 	.word	0xffffffff
    4d6c:	0000ffff 	.word	0x0000ffff
	...
    4f64:	ffffffff 	.word	0xffffffff
    4f68:	ffffffff 	.word	0xffffffff
    4f6c:	0000ffff 	.word	0x0000ffff
	...
    4f98:	ffffffff 	.word	0xffffffff
    4f9c:	ffffffff 	.word	0xffffffff
    4fa0:	ffffffff 	.word	0xffffffff
    4fa4:	ffffffff 	.word	0xffffffff
    4fa8:	ffffffff 	.word	0xffffffff
    4fac:	ffffffff 	.word	0xffffffff
    4fb0:	ffffffff 	.word	0xffffffff
    4fb4:	ffffffff 	.word	0xffffffff
    4fb8:	ffffffff 	.word	0xffffffff
    4fbc:	ffffffff 	.word	0xffffffff
    4fc0:	ffffffff 	.word	0xffffffff
    4fc4:	ffffffff 	.word	0xffffffff
    4fc8:	ffffffff 	.word	0xffffffff
    4fcc:	ffffffff 	.word	0xffffffff
    4fd0:	ffffffff 	.word	0xffffffff
    4fd4:	ffffffff 	.word	0xffffffff
    4fd8:	ffffffff 	.word	0xffffffff
    4fdc:	ffffffff 	.word	0xffffffff
    4fe0:	ffffffff 	.word	0xffffffff
    4fe4:	ffffffff 	.word	0xffffffff
    4fe8:	ffffffff 	.word	0xffffffff
    4fec:	0000ffff 	.word	0x0000ffff
	...
    51a0:	ffff0000 	.word	0xffff0000
    51a4:	ffffffff 	.word	0xffffffff
    51a8:	ffffffff 	.word	0xffffffff
	...
    51e4:	ffffffff 	.word	0xffffffff
    51e8:	ffffffff 	.word	0xffffffff
    51ec:	0000ffff 	.word	0x0000ffff
	...
    5218:	ffffffff 	.word	0xffffffff
    521c:	ffffffff 	.word	0xffffffff
    5220:	ffffffff 	.word	0xffffffff
    5224:	ffffffff 	.word	0xffffffff
    5228:	ffffffff 	.word	0xffffffff
    522c:	ffffffff 	.word	0xffffffff
    5230:	ffffffff 	.word	0xffffffff
    5234:	ffffffff 	.word	0xffffffff
    5238:	ffffffff 	.word	0xffffffff
    523c:	ffffffff 	.word	0xffffffff
    5240:	ffffffff 	.word	0xffffffff
    5244:	ffffffff 	.word	0xffffffff
    5248:	ffffffff 	.word	0xffffffff
    524c:	ffffffff 	.word	0xffffffff
    5250:	ffffffff 	.word	0xffffffff
    5254:	ffffffff 	.word	0xffffffff
    5258:	ffffffff 	.word	0xffffffff
    525c:	ffffffff 	.word	0xffffffff
    5260:	ffffffff 	.word	0xffffffff
    5264:	ffffffff 	.word	0xffffffff
    5268:	ffffffff 	.word	0xffffffff
    526c:	0000ffff 	.word	0x0000ffff
	...
    53cc:	ffff0000 	.word	0xffff0000
    53d0:	ffffffff 	.word	0xffffffff
    53d4:	ffffffff 	.word	0xffffffff
	...
    5420:	ffff0000 	.word	0xffff0000
    5424:	ffffffff 	.word	0xffffffff
    5428:	ffffffff 	.word	0xffffffff
    542c:	0000ffff 	.word	0x0000ffff
	...
    5460:	ffff0000 	.word	0xffff0000
    5464:	ffffffff 	.word	0xffffffff
    5468:	ffffffff 	.word	0xffffffff
    546c:	0000ffff 	.word	0x0000ffff
	...
    5498:	ffffffff 	.word	0xffffffff
    549c:	ffffffff 	.word	0xffffffff
    54a0:	ffffffff 	.word	0xffffffff
    54a4:	ffffffff 	.word	0xffffffff
    54a8:	ffffffff 	.word	0xffffffff
    54ac:	ffffffff 	.word	0xffffffff
    54b0:	ffffffff 	.word	0xffffffff
    54b4:	ffffffff 	.word	0xffffffff
    54b8:	ffffffff 	.word	0xffffffff
    54bc:	ffffffff 	.word	0xffffffff
    54c0:	ffffffff 	.word	0xffffffff
    54c4:	ffffffff 	.word	0xffffffff
    54c8:	ffffffff 	.word	0xffffffff
    54cc:	ffffffff 	.word	0xffffffff
    54d0:	ffffffff 	.word	0xffffffff
    54d4:	ffffffff 	.word	0xffffffff
    54d8:	ffffffff 	.word	0xffffffff
    54dc:	ffffffff 	.word	0xffffffff
    54e0:	ffffffff 	.word	0xffffffff
    54e4:	ffffffff 	.word	0xffffffff
    54e8:	ffffffff 	.word	0xffffffff
    54ec:	0000ffff 	.word	0x0000ffff
	...
    55a0:	ffff0000 	.word	0xffff0000
    55a4:	ffffffff 	.word	0xffffffff
    55a8:	ffffffff 	.word	0xffffffff
    55ac:	ffffffff 	.word	0xffffffff
    55b0:	ffffffff 	.word	0xffffffff
    55b4:	ffffffff 	.word	0xffffffff
    55b8:	ffffffff 	.word	0xffffffff
    55bc:	ffffffff 	.word	0xffffffff
    55c0:	ffffffff 	.word	0xffffffff
    55c4:	ffffffff 	.word	0xffffffff
    55c8:	ffffffff 	.word	0xffffffff
    55cc:	ffffffff 	.word	0xffffffff
    55d0:	ffffffff 	.word	0xffffffff
    55d4:	ffffffff 	.word	0xffffffff
    55d8:	ffffffff 	.word	0xffffffff
    55dc:	ffffffff 	.word	0xffffffff
    55e0:	ffffffff 	.word	0xffffffff
    55e4:	ffffffff 	.word	0xffffffff
    55e8:	ffffffff 	.word	0xffffffff
    55ec:	ffffffff 	.word	0xffffffff
    55f0:	ffffffff 	.word	0xffffffff
    55f4:	ffffffff 	.word	0xffffffff
    55f8:	ffffffff 	.word	0xffffffff
    55fc:	0000ffff 	.word	0x0000ffff
	...
    564c:	ffff0000 	.word	0xffff0000
    5650:	ffffffff 	.word	0xffffffff
    5654:	ffffffff 	.word	0xffffffff
	...
    56a0:	ffff0000 	.word	0xffff0000
    56a4:	ffffffff 	.word	0xffffffff
    56a8:	ffffffff 	.word	0xffffffff
    56ac:	0000ffff 	.word	0x0000ffff
	...
    56e0:	ffff0000 	.word	0xffff0000
    56e4:	ffffffff 	.word	0xffffffff
    56e8:	ffffffff 	.word	0xffffffff
    56ec:	0000ffff 	.word	0x0000ffff
	...
    5718:	ffffffff 	.word	0xffffffff
    571c:	ffffffff 	.word	0xffffffff
	...
    5820:	ffff0000 	.word	0xffff0000
    5824:	ffffffff 	.word	0xffffffff
    5828:	ffffffff 	.word	0xffffffff
    582c:	ffffffff 	.word	0xffffffff
    5830:	ffffffff 	.word	0xffffffff
    5834:	ffffffff 	.word	0xffffffff
    5838:	ffffffff 	.word	0xffffffff
    583c:	ffffffff 	.word	0xffffffff
    5840:	ffffffff 	.word	0xffffffff
    5844:	ffffffff 	.word	0xffffffff
    5848:	ffffffff 	.word	0xffffffff
    584c:	ffffffff 	.word	0xffffffff
    5850:	ffffffff 	.word	0xffffffff
    5854:	ffffffff 	.word	0xffffffff
    5858:	ffffffff 	.word	0xffffffff
    585c:	ffffffff 	.word	0xffffffff
    5860:	ffffffff 	.word	0xffffffff
    5864:	ffffffff 	.word	0xffffffff
    5868:	ffffffff 	.word	0xffffffff
    586c:	ffffffff 	.word	0xffffffff
    5870:	ffffffff 	.word	0xffffffff
    5874:	ffffffff 	.word	0xffffffff
    5878:	ffffffff 	.word	0xffffffff
    587c:	0000ffff 	.word	0x0000ffff
	...
    58cc:	ffff0000 	.word	0xffff0000
    58d0:	ffffffff 	.word	0xffffffff
    58d4:	ffffffff 	.word	0xffffffff
	...
    5920:	ffff0000 	.word	0xffff0000
    5924:	ffffffff 	.word	0xffffffff
    5928:	ffffffff 	.word	0xffffffff
    592c:	ffffffff 	.word	0xffffffff
	...
    5960:	ffffffff 	.word	0xffffffff
    5964:	ffffffff 	.word	0xffffffff
    5968:	ffffffff 	.word	0xffffffff
    596c:	0000ffff 	.word	0x0000ffff
	...
    5998:	ffffffff 	.word	0xffffffff
    599c:	ffffffff 	.word	0xffffffff
	...
    5aa0:	ffff0000 	.word	0xffff0000
    5aa4:	ffffffff 	.word	0xffffffff
    5aa8:	ffffffff 	.word	0xffffffff
    5aac:	ffffffff 	.word	0xffffffff
    5ab0:	ffffffff 	.word	0xffffffff
    5ab4:	ffffffff 	.word	0xffffffff
    5ab8:	ffffffff 	.word	0xffffffff
    5abc:	ffffffff 	.word	0xffffffff
    5ac0:	ffffffff 	.word	0xffffffff
    5ac4:	ffffffff 	.word	0xffffffff
    5ac8:	ffffffff 	.word	0xffffffff
    5acc:	ffffffff 	.word	0xffffffff
    5ad0:	ffffffff 	.word	0xffffffff
    5ad4:	ffffffff 	.word	0xffffffff
    5ad8:	ffffffff 	.word	0xffffffff
    5adc:	ffffffff 	.word	0xffffffff
    5ae0:	ffffffff 	.word	0xffffffff
    5ae4:	ffffffff 	.word	0xffffffff
    5ae8:	ffffffff 	.word	0xffffffff
    5aec:	ffffffff 	.word	0xffffffff
    5af0:	ffffffff 	.word	0xffffffff
    5af4:	ffffffff 	.word	0xffffffff
    5af8:	ffffffff 	.word	0xffffffff
    5afc:	0000ffff 	.word	0x0000ffff
	...
    5b4c:	ffff0000 	.word	0xffff0000
    5b50:	ffffffff 	.word	0xffffffff
    5b54:	ffffffff 	.word	0xffffffff
	...
    5ba0:	ffff0000 	.word	0xffff0000
    5ba4:	ffffffff 	.word	0xffffffff
    5ba8:	ffffffff 	.word	0xffffffff
    5bac:	ffffffff 	.word	0xffffffff
	...
    5be0:	ffffffff 	.word	0xffffffff
    5be4:	ffffffff 	.word	0xffffffff
    5be8:	ffffffff 	.word	0xffffffff
    5bec:	0000ffff 	.word	0x0000ffff
	...
    5c18:	ffffffff 	.word	0xffffffff
    5c1c:	ffffffff 	.word	0xffffffff
	...
    5d20:	ffff0000 	.word	0xffff0000
    5d24:	ffffffff 	.word	0xffffffff
    5d28:	ffffffff 	.word	0xffffffff
    5d2c:	ffffffff 	.word	0xffffffff
    5d30:	ffffffff 	.word	0xffffffff
    5d34:	ffffffff 	.word	0xffffffff
    5d38:	ffffffff 	.word	0xffffffff
    5d3c:	ffffffff 	.word	0xffffffff
    5d40:	ffffffff 	.word	0xffffffff
    5d44:	ffffffff 	.word	0xffffffff
    5d48:	ffffffff 	.word	0xffffffff
    5d4c:	ffffffff 	.word	0xffffffff
    5d50:	ffffffff 	.word	0xffffffff
    5d54:	ffffffff 	.word	0xffffffff
    5d58:	ffffffff 	.word	0xffffffff
    5d5c:	ffffffff 	.word	0xffffffff
    5d60:	ffffffff 	.word	0xffffffff
    5d64:	ffffffff 	.word	0xffffffff
    5d68:	ffffffff 	.word	0xffffffff
    5d6c:	ffffffff 	.word	0xffffffff
    5d70:	ffffffff 	.word	0xffffffff
    5d74:	ffffffff 	.word	0xffffffff
    5d78:	ffffffff 	.word	0xffffffff
    5d7c:	0000ffff 	.word	0x0000ffff
	...
    5dcc:	ffffffff 	.word	0xffffffff
    5dd0:	ffffffff 	.word	0xffffffff
    5dd4:	ffffffff 	.word	0xffffffff
    5dd8:	0000ffff 	.word	0x0000ffff
	...
    5e20:	ffff0000 	.word	0xffff0000
    5e24:	ffffffff 	.word	0xffffffff
    5e28:	ffffffff 	.word	0xffffffff
    5e2c:	ffffffff 	.word	0xffffffff
    5e30:	0000ffff 	.word	0x0000ffff
	...
    5e5c:	ffff0000 	.word	0xffff0000
    5e60:	ffffffff 	.word	0xffffffff
    5e64:	ffffffff 	.word	0xffffffff
    5e68:	ffffffff 	.word	0xffffffff
    5e6c:	0000ffff 	.word	0x0000ffff
	...
    5e98:	ffffffff 	.word	0xffffffff
    5e9c:	ffffffff 	.word	0xffffffff
	...
    5fa0:	ffff0000 	.word	0xffff0000
    5fa4:	ffffffff 	.word	0xffffffff
    5fa8:	0000ffff 	.word	0x0000ffff
	...
    604c:	ffffffff 	.word	0xffffffff
    6050:	ffffffff 	.word	0xffffffff
    6054:	ffffffff 	.word	0xffffffff
    6058:	0000ffff 	.word	0x0000ffff
	...
    60a0:	ffff0000 	.word	0xffff0000
    60a4:	ffffffff 	.word	0xffffffff
    60a8:	ffffffff 	.word	0xffffffff
    60ac:	ffffffff 	.word	0xffffffff
    60b0:	ffffffff 	.word	0xffffffff
	...
    60dc:	ffff0000 	.word	0xffff0000
    60e0:	ffffffff 	.word	0xffffffff
    60e4:	ffffffff 	.word	0xffffffff
    60e8:	ffffffff 	.word	0xffffffff
    60ec:	0000ffff 	.word	0x0000ffff
	...
    6118:	ffffffff 	.word	0xffffffff
    611c:	ffffffff 	.word	0xffffffff
	...
    6220:	ffff0000 	.word	0xffff0000
    6224:	ffffffff 	.word	0xffffffff
    6228:	0000ffff 	.word	0x0000ffff
	...
    62cc:	ffffffff 	.word	0xffffffff
    62d0:	ffffffff 	.word	0xffffffff
    62d4:	ffffffff 	.word	0xffffffff
    62d8:	ffffffff 	.word	0xffffffff
	...
    6320:	ffff0000 	.word	0xffff0000
    6324:	ffffffff 	.word	0xffffffff
    6328:	ffffffff 	.word	0xffffffff
    632c:	ffffffff 	.word	0xffffffff
    6330:	ffffffff 	.word	0xffffffff
	...
    635c:	ffffffff 	.word	0xffffffff
    6360:	ffffffff 	.word	0xffffffff
    6364:	ffffffff 	.word	0xffffffff
    6368:	ffffffff 	.word	0xffffffff
    636c:	0000ffff 	.word	0x0000ffff
	...
    6398:	ffffffff 	.word	0xffffffff
    639c:	ffffffff 	.word	0xffffffff
	...
    64a0:	ffff0000 	.word	0xffff0000
    64a4:	ffffffff 	.word	0xffffffff
    64a8:	0000ffff 	.word	0x0000ffff
	...
    6548:	ffff0000 	.word	0xffff0000
    654c:	ffffffff 	.word	0xffffffff
    6550:	ffffffff 	.word	0xffffffff
    6554:	ffffffff 	.word	0xffffffff
    6558:	ffffffff 	.word	0xffffffff
	...
    65a0:	ffff0000 	.word	0xffff0000
    65a4:	ffffffff 	.word	0xffffffff
    65a8:	ffffffff 	.word	0xffffffff
    65ac:	ffffffff 	.word	0xffffffff
    65b0:	ffffffff 	.word	0xffffffff
    65b4:	0000ffff 	.word	0x0000ffff
	...
    65d8:	ffff0000 	.word	0xffff0000
    65dc:	ffffffff 	.word	0xffffffff
    65e0:	ffffffff 	.word	0xffffffff
    65e4:	ffffffff 	.word	0xffffffff
    65e8:	ffffffff 	.word	0xffffffff
    65ec:	0000ffff 	.word	0x0000ffff
	...
    6618:	ffffffff 	.word	0xffffffff
    661c:	ffffffff 	.word	0xffffffff
	...
    6720:	ffff0000 	.word	0xffff0000
    6724:	ffffffff 	.word	0xffffffff
    6728:	0000ffff 	.word	0x0000ffff
	...
    67c8:	ffff0000 	.word	0xffff0000
    67cc:	ffffffff 	.word	0xffffffff
    67d0:	ffffffff 	.word	0xffffffff
    67d4:	ffffffff 	.word	0xffffffff
    67d8:	ffffffff 	.word	0xffffffff
	...
    6820:	ffff0000 	.word	0xffff0000
    6824:	ffffffff 	.word	0xffffffff
    6828:	0000ffff 	.word	0x0000ffff
    682c:	ffffffff 	.word	0xffffffff
    6830:	ffffffff 	.word	0xffffffff
    6834:	ffffffff 	.word	0xffffffff
	...
    6858:	ffff0000 	.word	0xffff0000
    685c:	ffffffff 	.word	0xffffffff
    6860:	ffffffff 	.word	0xffffffff
    6864:	ffffffff 	.word	0xffffffff
    6868:	ffffffff 	.word	0xffffffff
    686c:	0000ffff 	.word	0x0000ffff
	...
    6898:	ffffffff 	.word	0xffffffff
    689c:	ffffffff 	.word	0xffffffff
	...
    69a0:	ffff0000 	.word	0xffff0000
    69a4:	ffffffff 	.word	0xffffffff
    69a8:	0000ffff 	.word	0x0000ffff
	...
    6a48:	ffffffff 	.word	0xffffffff
    6a4c:	ffffffff 	.word	0xffffffff
    6a50:	ffffffff 	.word	0xffffffff
    6a54:	ffffffff 	.word	0xffffffff
    6a58:	ffffffff 	.word	0xffffffff
    6a5c:	0000ffff 	.word	0x0000ffff
	...
    6aa0:	ffff0000 	.word	0xffff0000
    6aa4:	ffffffff 	.word	0xffffffff
    6aa8:	0000ffff 	.word	0x0000ffff
    6aac:	ffffffff 	.word	0xffffffff
    6ab0:	ffffffff 	.word	0xffffffff
    6ab4:	ffffffff 	.word	0xffffffff
	...
    6ad8:	ffffffff 	.word	0xffffffff
    6adc:	ffffffff 	.word	0xffffffff
    6ae0:	ffffffff 	.word	0xffffffff
    6ae4:	ffff0000 	.word	0xffff0000
    6ae8:	ffffffff 	.word	0xffffffff
    6aec:	0000ffff 	.word	0x0000ffff
	...
    6b18:	ffffffff 	.word	0xffffffff
    6b1c:	ffffffff 	.word	0xffffffff
	...
    6c20:	ffff0000 	.word	0xffff0000
    6c24:	ffffffff 	.word	0xffffffff
    6c28:	0000ffff 	.word	0x0000ffff
	...
    6cc8:	ffffffff 	.word	0xffffffff
    6ccc:	ffffffff 	.word	0xffffffff
    6cd0:	0000ffff 	.word	0x0000ffff
    6cd4:	ffffffff 	.word	0xffffffff
    6cd8:	ffffffff 	.word	0xffffffff
    6cdc:	0000ffff 	.word	0x0000ffff
	...
    6d20:	ffff0000 	.word	0xffff0000
    6d24:	ffffffff 	.word	0xffffffff
    6d28:	0000ffff 	.word	0x0000ffff
    6d2c:	ffff0000 	.word	0xffff0000
    6d30:	ffffffff 	.word	0xffffffff
    6d34:	ffffffff 	.word	0xffffffff
    6d38:	0000ffff 	.word	0x0000ffff
	...
    6d58:	ffffffff 	.word	0xffffffff
    6d5c:	ffffffff 	.word	0xffffffff
    6d60:	0000ffff 	.word	0x0000ffff
    6d64:	ffff0000 	.word	0xffff0000
    6d68:	ffffffff 	.word	0xffffffff
    6d6c:	0000ffff 	.word	0x0000ffff
	...
    6d98:	ffffffff 	.word	0xffffffff
    6d9c:	ffffffff 	.word	0xffffffff
	...
    6ea0:	ffff0000 	.word	0xffff0000
    6ea4:	ffffffff 	.word	0xffffffff
    6ea8:	0000ffff 	.word	0x0000ffff
	...
    6f48:	ffffffff 	.word	0xffffffff
    6f4c:	ffffffff 	.word	0xffffffff
    6f50:	0000ffff 	.word	0x0000ffff
    6f54:	ffffffff 	.word	0xffffffff
    6f58:	ffffffff 	.word	0xffffffff
    6f5c:	0000ffff 	.word	0x0000ffff
	...
    6fa0:	ffff0000 	.word	0xffff0000
    6fa4:	ffffffff 	.word	0xffffffff
    6fa8:	0000ffff 	.word	0x0000ffff
    6fac:	00000000 	.word	0x00000000
    6fb0:	ffffffff 	.word	0xffffffff
    6fb4:	ffffffff 	.word	0xffffffff
    6fb8:	ffffffff 	.word	0xffffffff
	...
    6fd4:	ffff0000 	.word	0xffff0000
    6fd8:	ffffffff 	.word	0xffffffff
    6fdc:	ffffffff 	.word	0xffffffff
    6fe0:	0000ffff 	.word	0x0000ffff
    6fe4:	ffff0000 	.word	0xffff0000
    6fe8:	ffffffff 	.word	0xffffffff
    6fec:	0000ffff 	.word	0x0000ffff
	...
    7018:	ffffffff 	.word	0xffffffff
    701c:	ffffffff 	.word	0xffffffff
	...
    7120:	ffff0000 	.word	0xffff0000
    7124:	ffffffff 	.word	0xffffffff
    7128:	0000ffff 	.word	0x0000ffff
	...
    71c4:	ffff0000 	.word	0xffff0000
    71c8:	ffffffff 	.word	0xffffffff
    71cc:	ffffffff 	.word	0xffffffff
    71d0:	00000000 	.word	0x00000000
    71d4:	ffff0000 	.word	0xffff0000
    71d8:	ffffffff 	.word	0xffffffff
    71dc:	ffffffff 	.word	0xffffffff
	...
    7220:	ffff0000 	.word	0xffff0000
    7224:	ffffffff 	.word	0xffffffff
    7228:	0000ffff 	.word	0x0000ffff
    722c:	00000000 	.word	0x00000000
    7230:	ffffffff 	.word	0xffffffff
    7234:	ffffffff 	.word	0xffffffff
    7238:	ffffffff 	.word	0xffffffff
	...
    7254:	ffff0000 	.word	0xffff0000
    7258:	ffffffff 	.word	0xffffffff
    725c:	ffffffff 	.word	0xffffffff
    7260:	00000000 	.word	0x00000000
    7264:	ffff0000 	.word	0xffff0000
    7268:	ffffffff 	.word	0xffffffff
    726c:	0000ffff 	.word	0x0000ffff
	...
    7298:	ffffffff 	.word	0xffffffff
    729c:	ffffffff 	.word	0xffffffff
	...
    73a0:	ffff0000 	.word	0xffff0000
    73a4:	ffffffff 	.word	0xffffffff
    73a8:	0000ffff 	.word	0x0000ffff
	...
    7444:	ffff0000 	.word	0xffff0000
    7448:	ffffffff 	.word	0xffffffff
    744c:	ffffffff 	.word	0xffffffff
    7450:	00000000 	.word	0x00000000
    7454:	ffff0000 	.word	0xffff0000
    7458:	ffffffff 	.word	0xffffffff
    745c:	ffffffff 	.word	0xffffffff
	...
    74a0:	ffff0000 	.word	0xffff0000
    74a4:	ffffffff 	.word	0xffffffff
    74a8:	0000ffff 	.word	0x0000ffff
    74ac:	00000000 	.word	0x00000000
    74b0:	ffff0000 	.word	0xffff0000
    74b4:	ffffffff 	.word	0xffffffff
    74b8:	ffffffff 	.word	0xffffffff
    74bc:	0000ffff 	.word	0x0000ffff
	...
    74d4:	ffffffff 	.word	0xffffffff
    74d8:	ffffffff 	.word	0xffffffff
    74dc:	ffffffff 	.word	0xffffffff
    74e0:	00000000 	.word	0x00000000
    74e4:	ffff0000 	.word	0xffff0000
    74e8:	ffffffff 	.word	0xffffffff
    74ec:	0000ffff 	.word	0x0000ffff
	...
    7518:	ffffffff 	.word	0xffffffff
    751c:	ffffffff 	.word	0xffffffff
	...
    7620:	ffff0000 	.word	0xffff0000
    7624:	ffffffff 	.word	0xffffffff
    7628:	0000ffff 	.word	0x0000ffff
	...
    76c4:	ffff0000 	.word	0xffff0000
    76c8:	ffffffff 	.word	0xffffffff
    76cc:	ffffffff 	.word	0xffffffff
    76d0:	00000000 	.word	0x00000000
    76d4:	ffff0000 	.word	0xffff0000
    76d8:	ffffffff 	.word	0xffffffff
    76dc:	ffffffff 	.word	0xffffffff
	...
    7720:	ffff0000 	.word	0xffff0000
    7724:	ffffffff 	.word	0xffffffff
    7728:	0000ffff 	.word	0x0000ffff
	...
    7734:	ffffffff 	.word	0xffffffff
    7738:	ffffffff 	.word	0xffffffff
    773c:	0000ffff 	.word	0x0000ffff
	...
    7754:	ffffffff 	.word	0xffffffff
    7758:	ffffffff 	.word	0xffffffff
    775c:	0000ffff 	.word	0x0000ffff
    7760:	00000000 	.word	0x00000000
    7764:	ffff0000 	.word	0xffff0000
    7768:	ffffffff 	.word	0xffffffff
    776c:	0000ffff 	.word	0x0000ffff
	...
    7798:	ffffffff 	.word	0xffffffff
    779c:	ffffffff 	.word	0xffffffff
	...
    78a0:	ffff0000 	.word	0xffff0000
    78a4:	ffffffff 	.word	0xffffffff
    78a8:	0000ffff 	.word	0x0000ffff
	...
    7944:	ffffffff 	.word	0xffffffff
    7948:	ffffffff 	.word	0xffffffff
    794c:	0000ffff 	.word	0x0000ffff
	...
    7958:	ffffffff 	.word	0xffffffff
    795c:	ffffffff 	.word	0xffffffff
    7960:	0000ffff 	.word	0x0000ffff
	...
    79a0:	ffff0000 	.word	0xffff0000
    79a4:	ffffffff 	.word	0xffffffff
    79a8:	0000ffff 	.word	0x0000ffff
	...
    79b4:	ffffffff 	.word	0xffffffff
    79b8:	ffffffff 	.word	0xffffffff
    79bc:	ffffffff 	.word	0xffffffff
	...
    79d0:	ffff0000 	.word	0xffff0000
    79d4:	ffffffff 	.word	0xffffffff
    79d8:	ffffffff 	.word	0xffffffff
    79dc:	0000ffff 	.word	0x0000ffff
    79e0:	00000000 	.word	0x00000000
    79e4:	ffff0000 	.word	0xffff0000
    79e8:	ffffffff 	.word	0xffffffff
    79ec:	0000ffff 	.word	0x0000ffff
	...
    7a18:	ffffffff 	.word	0xffffffff
    7a1c:	ffffffff 	.word	0xffffffff
	...
    7b20:	ffff0000 	.word	0xffff0000
    7b24:	ffffffff 	.word	0xffffffff
    7b28:	0000ffff 	.word	0x0000ffff
	...
    7bc4:	ffffffff 	.word	0xffffffff
    7bc8:	ffffffff 	.word	0xffffffff
    7bcc:	0000ffff 	.word	0x0000ffff
	...
    7bd8:	ffffffff 	.word	0xffffffff
    7bdc:	ffffffff 	.word	0xffffffff
    7be0:	0000ffff 	.word	0x0000ffff
	...
    7c20:	ffff0000 	.word	0xffff0000
    7c24:	ffffffff 	.word	0xffffffff
    7c28:	0000ffff 	.word	0x0000ffff
	...
    7c34:	ffff0000 	.word	0xffff0000
    7c38:	ffffffff 	.word	0xffffffff
    7c3c:	ffffffff 	.word	0xffffffff
    7c40:	0000ffff 	.word	0x0000ffff
	...
    7c50:	ffff0000 	.word	0xffff0000
    7c54:	ffffffff 	.word	0xffffffff
    7c58:	ffffffff 	.word	0xffffffff
	...
    7c64:	ffff0000 	.word	0xffff0000
    7c68:	ffffffff 	.word	0xffffffff
    7c6c:	0000ffff 	.word	0x0000ffff
	...
    7c98:	ffffffff 	.word	0xffffffff
    7c9c:	ffffffff 	.word	0xffffffff
	...
    7da0:	ffff0000 	.word	0xffff0000
    7da4:	ffffffff 	.word	0xffffffff
    7da8:	0000ffff 	.word	0x0000ffff
	...
    7e44:	ffffffff 	.word	0xffffffff
    7e48:	ffffffff 	.word	0xffffffff
    7e4c:	0000ffff 	.word	0x0000ffff
	...
    7e58:	ffffffff 	.word	0xffffffff
    7e5c:	ffffffff 	.word	0xffffffff
    7e60:	0000ffff 	.word	0x0000ffff
	...
    7ea0:	ffff0000 	.word	0xffff0000
    7ea4:	ffffffff 	.word	0xffffffff
    7ea8:	0000ffff 	.word	0x0000ffff
	...
    7eb4:	ffff0000 	.word	0xffff0000
    7eb8:	ffffffff 	.word	0xffffffff
    7ebc:	ffffffff 	.word	0xffffffff
    7ec0:	0000ffff 	.word	0x0000ffff
	...
    7ed0:	ffffffff 	.word	0xffffffff
    7ed4:	ffffffff 	.word	0xffffffff
    7ed8:	ffffffff 	.word	0xffffffff
	...
    7ee4:	ffff0000 	.word	0xffff0000
    7ee8:	ffffffff 	.word	0xffffffff
    7eec:	0000ffff 	.word	0x0000ffff
	...
    7f18:	ffffffff 	.word	0xffffffff
    7f1c:	ffffffff 	.word	0xffffffff
	...
    8020:	ffff0000 	.word	0xffff0000
    8024:	ffffffff 	.word	0xffffffff
    8028:	0000ffff 	.word	0x0000ffff
	...
    80c0:	ffff0000 	.word	0xffff0000
    80c4:	ffffffff 	.word	0xffffffff
    80c8:	ffffffff 	.word	0xffffffff
	...
    80d8:	ffff0000 	.word	0xffff0000
    80dc:	ffffffff 	.word	0xffffffff
    80e0:	ffffffff 	.word	0xffffffff
	...
    8120:	ffff0000 	.word	0xffff0000
    8124:	ffffffff 	.word	0xffffffff
    8128:	0000ffff 	.word	0x0000ffff
	...
    8138:	ffffffff 	.word	0xffffffff
    813c:	ffffffff 	.word	0xffffffff
    8140:	ffffffff 	.word	0xffffffff
	...
    814c:	ffff0000 	.word	0xffff0000
    8150:	ffffffff 	.word	0xffffffff
    8154:	ffffffff 	.word	0xffffffff
    8158:	0000ffff 	.word	0x0000ffff
	...
    8164:	ffff0000 	.word	0xffff0000
    8168:	ffffffff 	.word	0xffffffff
    816c:	0000ffff 	.word	0x0000ffff
	...
    8198:	ffffffff 	.word	0xffffffff
    819c:	ffffffff 	.word	0xffffffff
	...
    82a0:	ffff0000 	.word	0xffff0000
    82a4:	ffffffff 	.word	0xffffffff
    82a8:	0000ffff 	.word	0x0000ffff
	...
    8340:	ffff0000 	.word	0xffff0000
    8344:	ffffffff 	.word	0xffffffff
    8348:	ffffffff 	.word	0xffffffff
	...
    8358:	ffff0000 	.word	0xffff0000
    835c:	ffffffff 	.word	0xffffffff
    8360:	ffffffff 	.word	0xffffffff
	...
    83a0:	ffff0000 	.word	0xffff0000
    83a4:	ffffffff 	.word	0xffffffff
    83a8:	0000ffff 	.word	0x0000ffff
	...
    83b8:	ffff0000 	.word	0xffff0000
    83bc:	ffffffff 	.word	0xffffffff
    83c0:	ffffffff 	.word	0xffffffff
    83c4:	0000ffff 	.word	0x0000ffff
    83c8:	00000000 	.word	0x00000000
    83cc:	ffff0000 	.word	0xffff0000
    83d0:	ffffffff 	.word	0xffffffff
    83d4:	ffffffff 	.word	0xffffffff
    83d8:	0000ffff 	.word	0x0000ffff
	...
    83e4:	ffff0000 	.word	0xffff0000
    83e8:	ffffffff 	.word	0xffffffff
    83ec:	0000ffff 	.word	0x0000ffff
	...
    8418:	ffffffff 	.word	0xffffffff
    841c:	ffffffff 	.word	0xffffffff
	...
    8520:	ffff0000 	.word	0xffff0000
    8524:	ffffffff 	.word	0xffffffff
    8528:	0000ffff 	.word	0x0000ffff
	...
    85c0:	ffff0000 	.word	0xffff0000
    85c4:	ffffffff 	.word	0xffffffff
    85c8:	ffffffff 	.word	0xffffffff
	...
    85d8:	ffff0000 	.word	0xffff0000
    85dc:	ffffffff 	.word	0xffffffff
    85e0:	ffffffff 	.word	0xffffffff
    85e4:	0000ffff 	.word	0x0000ffff
	...
    8620:	ffff0000 	.word	0xffff0000
    8624:	ffffffff 	.word	0xffffffff
    8628:	0000ffff 	.word	0x0000ffff
	...
    8638:	ffff0000 	.word	0xffff0000
    863c:	ffffffff 	.word	0xffffffff
    8640:	ffffffff 	.word	0xffffffff
    8644:	0000ffff 	.word	0x0000ffff
    8648:	00000000 	.word	0x00000000
    864c:	ffffffff 	.word	0xffffffff
    8650:	ffffffff 	.word	0xffffffff
    8654:	ffffffff 	.word	0xffffffff
	...
    8664:	ffff0000 	.word	0xffff0000
    8668:	ffffffff 	.word	0xffffffff
    866c:	0000ffff 	.word	0x0000ffff
	...
    8698:	ffffffff 	.word	0xffffffff
    869c:	ffffffff 	.word	0xffffffff
	...
    87a0:	ffff0000 	.word	0xffff0000
    87a4:	ffffffff 	.word	0xffffffff
    87a8:	0000ffff 	.word	0x0000ffff
	...
    8840:	ffffffff 	.word	0xffffffff
    8844:	ffffffff 	.word	0xffffffff
    8848:	0000ffff 	.word	0x0000ffff
	...
    885c:	ffffffff 	.word	0xffffffff
    8860:	ffffffff 	.word	0xffffffff
    8864:	0000ffff 	.word	0x0000ffff
	...
    88a0:	ffff0000 	.word	0xffff0000
    88a4:	ffffffff 	.word	0xffffffff
    88a8:	0000ffff 	.word	0x0000ffff
	...
    88bc:	ffffffff 	.word	0xffffffff
    88c0:	ffffffff 	.word	0xffffffff
    88c4:	ffffffff 	.word	0xffffffff
    88c8:	00000000 	.word	0x00000000
    88cc:	ffffffff 	.word	0xffffffff
    88d0:	ffffffff 	.word	0xffffffff
    88d4:	0000ffff 	.word	0x0000ffff
	...
    88e4:	ffff0000 	.word	0xffff0000
    88e8:	ffffffff 	.word	0xffffffff
    88ec:	0000ffff 	.word	0x0000ffff
	...
    8918:	ffffffff 	.word	0xffffffff
    891c:	ffffffff 	.word	0xffffffff
	...
    8a20:	ffff0000 	.word	0xffff0000
    8a24:	ffffffff 	.word	0xffffffff
    8a28:	0000ffff 	.word	0x0000ffff
	...
    8ac0:	ffffffff 	.word	0xffffffff
    8ac4:	ffffffff 	.word	0xffffffff
    8ac8:	0000ffff 	.word	0x0000ffff
	...
    8adc:	ffffffff 	.word	0xffffffff
    8ae0:	ffffffff 	.word	0xffffffff
    8ae4:	0000ffff 	.word	0x0000ffff
	...
    8b20:	ffff0000 	.word	0xffff0000
    8b24:	ffffffff 	.word	0xffffffff
    8b28:	0000ffff 	.word	0x0000ffff
	...
    8b3c:	ffff0000 	.word	0xffff0000
    8b40:	ffffffff 	.word	0xffffffff
    8b44:	ffffffff 	.word	0xffffffff
    8b48:	ffff0000 	.word	0xffff0000
    8b4c:	ffffffff 	.word	0xffffffff
    8b50:	ffffffff 	.word	0xffffffff
    8b54:	0000ffff 	.word	0x0000ffff
	...
    8b64:	ffff0000 	.word	0xffff0000
    8b68:	ffffffff 	.word	0xffffffff
    8b6c:	0000ffff 	.word	0x0000ffff
	...
    8b98:	ffffffff 	.word	0xffffffff
    8b9c:	ffffffff 	.word	0xffffffff
	...
    8ca0:	ffff0000 	.word	0xffff0000
    8ca4:	ffffffff 	.word	0xffffffff
    8ca8:	0000ffff 	.word	0x0000ffff
	...
    8d40:	ffffffff 	.word	0xffffffff
    8d44:	ffffffff 	.word	0xffffffff
    8d48:	0000ffff 	.word	0x0000ffff
	...
    8d5c:	ffff0000 	.word	0xffff0000
    8d60:	ffffffff 	.word	0xffffffff
    8d64:	ffffffff 	.word	0xffffffff
	...
    8da0:	ffff0000 	.word	0xffff0000
    8da4:	ffffffff 	.word	0xffffffff
    8da8:	0000ffff 	.word	0x0000ffff
	...
    8dbc:	ffff0000 	.word	0xffff0000
    8dc0:	ffffffff 	.word	0xffffffff
    8dc4:	ffffffff 	.word	0xffffffff
    8dc8:	ffffffff 	.word	0xffffffff
    8dcc:	ffffffff 	.word	0xffffffff
    8dd0:	ffffffff 	.word	0xffffffff
	...
    8de4:	ffff0000 	.word	0xffff0000
    8de8:	ffffffff 	.word	0xffffffff
    8dec:	0000ffff 	.word	0x0000ffff
	...
    8e18:	ffffffff 	.word	0xffffffff
    8e1c:	ffffffff 	.word	0xffffffff
	...
    8f20:	ffff0000 	.word	0xffff0000
    8f24:	ffffffff 	.word	0xffffffff
    8f28:	0000ffff 	.word	0x0000ffff
	...
    8fbc:	ffff0000 	.word	0xffff0000
    8fc0:	ffffffff 	.word	0xffffffff
    8fc4:	ffffffff 	.word	0xffffffff
	...
    8fdc:	ffff0000 	.word	0xffff0000
    8fe0:	ffffffff 	.word	0xffffffff
    8fe4:	ffffffff 	.word	0xffffffff
	...
    9020:	ffff0000 	.word	0xffff0000
    9024:	ffffffff 	.word	0xffffffff
    9028:	0000ffff 	.word	0x0000ffff
	...
    9040:	ffffffff 	.word	0xffffffff
    9044:	ffffffff 	.word	0xffffffff
    9048:	ffffffff 	.word	0xffffffff
    904c:	ffffffff 	.word	0xffffffff
    9050:	ffffffff 	.word	0xffffffff
	...
    9064:	ffff0000 	.word	0xffff0000
    9068:	ffffffff 	.word	0xffffffff
    906c:	0000ffff 	.word	0x0000ffff
	...
    9098:	ffffffff 	.word	0xffffffff
    909c:	ffffffff 	.word	0xffffffff
	...
    91a0:	ffff0000 	.word	0xffff0000
    91a4:	ffffffff 	.word	0xffffffff
    91a8:	0000ffff 	.word	0x0000ffff
	...
    923c:	ffff0000 	.word	0xffff0000
    9240:	ffffffff 	.word	0xffffffff
    9244:	ffffffff 	.word	0xffffffff
	...
    925c:	ffff0000 	.word	0xffff0000
    9260:	ffffffff 	.word	0xffffffff
    9264:	ffffffff 	.word	0xffffffff
	...
    92a0:	ffff0000 	.word	0xffff0000
    92a4:	ffffffff 	.word	0xffffffff
    92a8:	0000ffff 	.word	0x0000ffff
	...
    92c0:	ffffffff 	.word	0xffffffff
    92c4:	ffffffff 	.word	0xffffffff
    92c8:	ffffffff 	.word	0xffffffff
    92cc:	ffffffff 	.word	0xffffffff
    92d0:	0000ffff 	.word	0x0000ffff
	...
    92e4:	ffff0000 	.word	0xffff0000
    92e8:	ffffffff 	.word	0xffffffff
    92ec:	0000ffff 	.word	0x0000ffff
	...
    9318:	ffffffff 	.word	0xffffffff
    931c:	ffffffff 	.word	0xffffffff
	...
    9420:	ffff0000 	.word	0xffff0000
    9424:	ffffffff 	.word	0xffffffff
    9428:	0000ffff 	.word	0x0000ffff
	...
    94bc:	ffff0000 	.word	0xffff0000
    94c0:	ffffffff 	.word	0xffffffff
    94c4:	ffffffff 	.word	0xffffffff
	...
    94e0:	ffffffff 	.word	0xffffffff
    94e4:	ffffffff 	.word	0xffffffff
    94e8:	0000ffff 	.word	0x0000ffff
	...
    9520:	ffff0000 	.word	0xffff0000
    9524:	ffffffff 	.word	0xffffffff
    9528:	0000ffff 	.word	0x0000ffff
	...
    9540:	ffff0000 	.word	0xffff0000
    9544:	ffffffff 	.word	0xffffffff
    9548:	ffffffff 	.word	0xffffffff
    954c:	ffffffff 	.word	0xffffffff
    9550:	0000ffff 	.word	0x0000ffff
	...
    9564:	ffff0000 	.word	0xffff0000
    9568:	ffffffff 	.word	0xffffffff
    956c:	0000ffff 	.word	0x0000ffff
	...
    9598:	ffffffff 	.word	0xffffffff
    959c:	ffffffff 	.word	0xffffffff
	...
    96a0:	ffff0000 	.word	0xffff0000
    96a4:	ffffffff 	.word	0xffffffff
    96a8:	0000ffff 	.word	0x0000ffff
	...
    973c:	ffffffff 	.word	0xffffffff
    9740:	ffffffff 	.word	0xffffffff
    9744:	0000ffff 	.word	0x0000ffff
	...
    9760:	ffffffff 	.word	0xffffffff
    9764:	ffffffff 	.word	0xffffffff
    9768:	0000ffff 	.word	0x0000ffff
	...
    97a0:	ffff0000 	.word	0xffff0000
    97a4:	ffffffff 	.word	0xffffffff
    97a8:	0000ffff 	.word	0x0000ffff
	...
    97c4:	ffffffff 	.word	0xffffffff
    97c8:	ffffffff 	.word	0xffffffff
    97cc:	ffffffff 	.word	0xffffffff
	...
    97e4:	ffff0000 	.word	0xffff0000
    97e8:	ffffffff 	.word	0xffffffff
    97ec:	0000ffff 	.word	0x0000ffff
	...
    9818:	ffffffff 	.word	0xffffffff
    981c:	ffffffff 	.word	0xffffffff
	...
    9920:	ffff0000 	.word	0xffff0000
    9924:	ffffffff 	.word	0xffffffff
    9928:	0000ffff 	.word	0x0000ffff
	...
    99bc:	ffffffff 	.word	0xffffffff
    99c0:	ffffffff 	.word	0xffffffff
    99c4:	0000ffff 	.word	0x0000ffff
	...
    99e0:	ffffffff 	.word	0xffffffff
    99e4:	ffffffff 	.word	0xffffffff
    99e8:	0000ffff 	.word	0x0000ffff
	...
    9a20:	ffff0000 	.word	0xffff0000
    9a24:	ffffffff 	.word	0xffffffff
    9a28:	0000ffff 	.word	0x0000ffff
	...
    9a44:	ffffffff 	.word	0xffffffff
    9a48:	ffffffff 	.word	0xffffffff
    9a4c:	ffffffff 	.word	0xffffffff
	...
    9a64:	ffff0000 	.word	0xffff0000
    9a68:	ffffffff 	.word	0xffffffff
    9a6c:	0000ffff 	.word	0x0000ffff
	...
    9a98:	ffffffff 	.word	0xffffffff
    9a9c:	ffffffff 	.word	0xffffffff
	...
    9ba0:	ffff0000 	.word	0xffff0000
    9ba4:	ffffffff 	.word	0xffffffff
    9ba8:	0000ffff 	.word	0x0000ffff
	...
    9c38:	ffff0000 	.word	0xffff0000
    9c3c:	ffffffff 	.word	0xffffffff
    9c40:	ffffffff 	.word	0xffffffff
    9c44:	0000ffff 	.word	0x0000ffff
	...
    9c60:	ffff0000 	.word	0xffff0000
    9c64:	ffffffff 	.word	0xffffffff
    9c68:	ffffffff 	.word	0xffffffff
	...
    9ca0:	ffff0000 	.word	0xffff0000
    9ca4:	ffffffff 	.word	0xffffffff
    9ca8:	0000ffff 	.word	0x0000ffff
	...
    9cc4:	ffff0000 	.word	0xffff0000
    9cc8:	ffffffff 	.word	0xffffffff
    9ccc:	0000ffff 	.word	0x0000ffff
	...
    9ce4:	ffff0000 	.word	0xffff0000
    9ce8:	ffffffff 	.word	0xffffffff
    9cec:	0000ffff 	.word	0x0000ffff
	...
    9d18:	ffffffff 	.word	0xffffffff
    9d1c:	ffffffff 	.word	0xffffffff
	...
    9e20:	ffff0000 	.word	0xffff0000
    9e24:	ffffffff 	.word	0xffffffff
    9e28:	0000ffff 	.word	0x0000ffff
	...
    9eb8:	ffff0000 	.word	0xffff0000
    9ebc:	ffffffff 	.word	0xffffffff
    9ec0:	ffffffff 	.word	0xffffffff
	...
    9ee0:	ffff0000 	.word	0xffff0000
    9ee4:	ffffffff 	.word	0xffffffff
    9ee8:	ffffffff 	.word	0xffffffff
	...
    9f20:	ffff0000 	.word	0xffff0000
    9f24:	ffffffff 	.word	0xffffffff
    9f28:	0000ffff 	.word	0x0000ffff
	...
    9f64:	ffff0000 	.word	0xffff0000
    9f68:	ffffffff 	.word	0xffffffff
    9f6c:	0000ffff 	.word	0x0000ffff
	...
    9f98:	ffffffff 	.word	0xffffffff
    9f9c:	ffffffff 	.word	0xffffffff
    9fa0:	ffffffff 	.word	0xffffffff
    9fa4:	ffffffff 	.word	0xffffffff
    9fa8:	ffffffff 	.word	0xffffffff
    9fac:	ffffffff 	.word	0xffffffff
    9fb0:	ffffffff 	.word	0xffffffff
    9fb4:	ffffffff 	.word	0xffffffff
    9fb8:	ffffffff 	.word	0xffffffff
    9fbc:	ffffffff 	.word	0xffffffff
    9fc0:	ffffffff 	.word	0xffffffff
    9fc4:	ffffffff 	.word	0xffffffff
    9fc8:	ffffffff 	.word	0xffffffff
    9fcc:	ffffffff 	.word	0xffffffff
    9fd0:	ffffffff 	.word	0xffffffff
    9fd4:	ffffffff 	.word	0xffffffff
    9fd8:	ffffffff 	.word	0xffffffff
    9fdc:	ffffffff 	.word	0xffffffff
    9fe0:	ffffffff 	.word	0xffffffff
    9fe4:	ffffffff 	.word	0xffffffff
    9fe8:	0000ffff 	.word	0x0000ffff
	...
    a0a0:	ffff0000 	.word	0xffff0000
    a0a4:	ffffffff 	.word	0xffffffff
    a0a8:	0000ffff 	.word	0x0000ffff
	...
    a0c0:	ffff0000 	.word	0xffff0000
    a0c4:	ffffffff 	.word	0xffffffff
    a0c8:	ffffffff 	.word	0xffffffff
    a0cc:	ffffffff 	.word	0xffffffff
    a0d0:	ffffffff 	.word	0xffffffff
    a0d4:	ffffffff 	.word	0xffffffff
    a0d8:	ffffffff 	.word	0xffffffff
    a0dc:	ffffffff 	.word	0xffffffff
    a0e0:	ffffffff 	.word	0xffffffff
    a0e4:	ffffffff 	.word	0xffffffff
    a0e8:	ffffffff 	.word	0xffffffff
    a0ec:	ffffffff 	.word	0xffffffff
    a0f0:	ffffffff 	.word	0xffffffff
    a0f4:	ffffffff 	.word	0xffffffff
    a0f8:	ffffffff 	.word	0xffffffff
	...
    a138:	ffff0000 	.word	0xffff0000
    a13c:	ffffffff 	.word	0xffffffff
    a140:	ffffffff 	.word	0xffffffff
	...
    a160:	ffff0000 	.word	0xffff0000
    a164:	ffffffff 	.word	0xffffffff
    a168:	ffffffff 	.word	0xffffffff
    a16c:	0000ffff 	.word	0x0000ffff
	...
    a1a0:	ffff0000 	.word	0xffff0000
    a1a4:	ffffffff 	.word	0xffffffff
    a1a8:	0000ffff 	.word	0x0000ffff
	...
    a1e4:	ffff0000 	.word	0xffff0000
    a1e8:	ffffffff 	.word	0xffffffff
    a1ec:	0000ffff 	.word	0x0000ffff
	...
    a218:	ffffffff 	.word	0xffffffff
    a21c:	ffffffff 	.word	0xffffffff
    a220:	ffffffff 	.word	0xffffffff
    a224:	ffffffff 	.word	0xffffffff
    a228:	ffffffff 	.word	0xffffffff
    a22c:	ffffffff 	.word	0xffffffff
    a230:	ffffffff 	.word	0xffffffff
    a234:	ffffffff 	.word	0xffffffff
    a238:	ffffffff 	.word	0xffffffff
    a23c:	ffffffff 	.word	0xffffffff
    a240:	ffffffff 	.word	0xffffffff
    a244:	ffffffff 	.word	0xffffffff
    a248:	ffffffff 	.word	0xffffffff
    a24c:	ffffffff 	.word	0xffffffff
    a250:	ffffffff 	.word	0xffffffff
    a254:	ffffffff 	.word	0xffffffff
    a258:	ffffffff 	.word	0xffffffff
    a25c:	ffffffff 	.word	0xffffffff
    a260:	ffffffff 	.word	0xffffffff
    a264:	ffffffff 	.word	0xffffffff
    a268:	0000ffff 	.word	0x0000ffff
	...
    a320:	ffff0000 	.word	0xffff0000
    a324:	ffffffff 	.word	0xffffffff
    a328:	0000ffff 	.word	0x0000ffff
	...
    a340:	ffff0000 	.word	0xffff0000
    a344:	ffffffff 	.word	0xffffffff
    a348:	ffffffff 	.word	0xffffffff
    a34c:	ffffffff 	.word	0xffffffff
    a350:	ffffffff 	.word	0xffffffff
    a354:	ffffffff 	.word	0xffffffff
    a358:	ffffffff 	.word	0xffffffff
    a35c:	ffffffff 	.word	0xffffffff
    a360:	ffffffff 	.word	0xffffffff
    a364:	ffffffff 	.word	0xffffffff
    a368:	ffffffff 	.word	0xffffffff
    a36c:	ffffffff 	.word	0xffffffff
    a370:	ffffffff 	.word	0xffffffff
    a374:	ffffffff 	.word	0xffffffff
    a378:	ffffffff 	.word	0xffffffff
	...
    a3b8:	ffffffff 	.word	0xffffffff
    a3bc:	ffffffff 	.word	0xffffffff
    a3c0:	ffffffff 	.word	0xffffffff
    a3c4:	ffffffff 	.word	0xffffffff
    a3c8:	ffffffff 	.word	0xffffffff
    a3cc:	ffffffff 	.word	0xffffffff
    a3d0:	ffffffff 	.word	0xffffffff
    a3d4:	ffffffff 	.word	0xffffffff
    a3d8:	ffffffff 	.word	0xffffffff
    a3dc:	ffffffff 	.word	0xffffffff
    a3e0:	ffffffff 	.word	0xffffffff
    a3e4:	ffffffff 	.word	0xffffffff
    a3e8:	ffffffff 	.word	0xffffffff
    a3ec:	0000ffff 	.word	0x0000ffff
	...
    a420:	ffff0000 	.word	0xffff0000
    a424:	ffffffff 	.word	0xffffffff
    a428:	0000ffff 	.word	0x0000ffff
	...
    a464:	ffff0000 	.word	0xffff0000
    a468:	ffffffff 	.word	0xffffffff
    a46c:	0000ffff 	.word	0x0000ffff
	...
    a498:	ffffffff 	.word	0xffffffff
    a49c:	ffffffff 	.word	0xffffffff
    a4a0:	ffffffff 	.word	0xffffffff
    a4a4:	ffffffff 	.word	0xffffffff
    a4a8:	ffffffff 	.word	0xffffffff
    a4ac:	ffffffff 	.word	0xffffffff
    a4b0:	ffffffff 	.word	0xffffffff
    a4b4:	ffffffff 	.word	0xffffffff
    a4b8:	ffffffff 	.word	0xffffffff
    a4bc:	ffffffff 	.word	0xffffffff
    a4c0:	ffffffff 	.word	0xffffffff
    a4c4:	ffffffff 	.word	0xffffffff
    a4c8:	ffffffff 	.word	0xffffffff
    a4cc:	ffffffff 	.word	0xffffffff
    a4d0:	ffffffff 	.word	0xffffffff
    a4d4:	ffffffff 	.word	0xffffffff
    a4d8:	ffffffff 	.word	0xffffffff
    a4dc:	ffffffff 	.word	0xffffffff
    a4e0:	ffffffff 	.word	0xffffffff
    a4e4:	ffffffff 	.word	0xffffffff
    a4e8:	0000ffff 	.word	0x0000ffff
	...
    a5a0:	ffff0000 	.word	0xffff0000
    a5a4:	ffffffff 	.word	0xffffffff
    a5a8:	0000ffff 	.word	0x0000ffff
	...
    a5c0:	ffff0000 	.word	0xffff0000
    a5c4:	ffffffff 	.word	0xffffffff
    a5c8:	ffffffff 	.word	0xffffffff
    a5cc:	ffffffff 	.word	0xffffffff
    a5d0:	ffffffff 	.word	0xffffffff
    a5d4:	ffffffff 	.word	0xffffffff
    a5d8:	ffffffff 	.word	0xffffffff
    a5dc:	ffffffff 	.word	0xffffffff
    a5e0:	ffffffff 	.word	0xffffffff
    a5e4:	ffffffff 	.word	0xffffffff
    a5e8:	ffffffff 	.word	0xffffffff
    a5ec:	ffffffff 	.word	0xffffffff
    a5f0:	ffffffff 	.word	0xffffffff
    a5f4:	ffffffff 	.word	0xffffffff
    a5f8:	ffffffff 	.word	0xffffffff
	...
    a638:	ffffffff 	.word	0xffffffff
    a63c:	ffffffff 	.word	0xffffffff
    a640:	ffffffff 	.word	0xffffffff
    a644:	ffffffff 	.word	0xffffffff
    a648:	ffffffff 	.word	0xffffffff
    a64c:	ffffffff 	.word	0xffffffff
    a650:	ffffffff 	.word	0xffffffff
    a654:	ffffffff 	.word	0xffffffff
    a658:	ffffffff 	.word	0xffffffff
    a65c:	ffffffff 	.word	0xffffffff
    a660:	ffffffff 	.word	0xffffffff
    a664:	ffffffff 	.word	0xffffffff
    a668:	ffffffff 	.word	0xffffffff
    a66c:	0000ffff 	.word	0x0000ffff
	...
    a6a0:	ffff0000 	.word	0xffff0000
    a6a4:	ffffffff 	.word	0xffffffff
    a6a8:	0000ffff 	.word	0x0000ffff
	...
    a6e4:	ffff0000 	.word	0xffff0000
    a6e8:	ffffffff 	.word	0xffffffff
    a6ec:	0000ffff 	.word	0x0000ffff
	...
    a718:	ffffffff 	.word	0xffffffff
    a71c:	ffffffff 	.word	0xffffffff
    a720:	ffffffff 	.word	0xffffffff
    a724:	ffffffff 	.word	0xffffffff
    a728:	ffffffff 	.word	0xffffffff
    a72c:	ffffffff 	.word	0xffffffff
    a730:	ffffffff 	.word	0xffffffff
    a734:	ffffffff 	.word	0xffffffff
    a738:	ffffffff 	.word	0xffffffff
    a73c:	ffffffff 	.word	0xffffffff
    a740:	ffffffff 	.word	0xffffffff
    a744:	ffffffff 	.word	0xffffffff
    a748:	ffffffff 	.word	0xffffffff
    a74c:	ffffffff 	.word	0xffffffff
    a750:	ffffffff 	.word	0xffffffff
    a754:	ffffffff 	.word	0xffffffff
    a758:	ffffffff 	.word	0xffffffff
    a75c:	ffffffff 	.word	0xffffffff
    a760:	ffffffff 	.word	0xffffffff
    a764:	ffffffff 	.word	0xffffffff
    a768:	0000ffff 	.word	0x0000ffff
	...
    a820:	ffff0000 	.word	0xffff0000
    a824:	ffffffff 	.word	0xffffffff
    a828:	0000ffff 	.word	0x0000ffff
	...
    a840:	ffff0000 	.word	0xffff0000
    a844:	ffffffff 	.word	0xffffffff
    a848:	ffffffff 	.word	0xffffffff
    a84c:	ffffffff 	.word	0xffffffff
    a850:	ffffffff 	.word	0xffffffff
    a854:	ffffffff 	.word	0xffffffff
    a858:	ffffffff 	.word	0xffffffff
    a85c:	ffffffff 	.word	0xffffffff
    a860:	ffffffff 	.word	0xffffffff
    a864:	ffffffff 	.word	0xffffffff
    a868:	ffffffff 	.word	0xffffffff
    a86c:	ffffffff 	.word	0xffffffff
    a870:	ffffffff 	.word	0xffffffff
    a874:	ffffffff 	.word	0xffffffff
    a878:	ffffffff 	.word	0xffffffff
	...
    a8b8:	ffffffff 	.word	0xffffffff
    a8bc:	ffffffff 	.word	0xffffffff
    a8c0:	ffffffff 	.word	0xffffffff
    a8c4:	ffffffff 	.word	0xffffffff
    a8c8:	ffffffff 	.word	0xffffffff
    a8cc:	ffffffff 	.word	0xffffffff
    a8d0:	ffffffff 	.word	0xffffffff
    a8d4:	ffffffff 	.word	0xffffffff
    a8d8:	ffffffff 	.word	0xffffffff
    a8dc:	ffffffff 	.word	0xffffffff
    a8e0:	ffffffff 	.word	0xffffffff
    a8e4:	ffffffff 	.word	0xffffffff
    a8e8:	ffffffff 	.word	0xffffffff
    a8ec:	ffffffff 	.word	0xffffffff
	...
    a920:	ffff0000 	.word	0xffff0000
    a924:	ffffffff 	.word	0xffffffff
    a928:	0000ffff 	.word	0x0000ffff
	...
    a964:	ffff0000 	.word	0xffff0000
    a968:	ffffffff 	.word	0xffffffff
    a96c:	0000ffff 	.word	0x0000ffff
	...
    a998:	ffffffff 	.word	0xffffffff
    a99c:	ffffffff 	.word	0xffffffff
	...
    aaa0:	ffff0000 	.word	0xffff0000
    aaa4:	ffffffff 	.word	0xffffffff
    aaa8:	0000ffff 	.word	0x0000ffff
	...
    aaf4:	ffffffff 	.word	0xffffffff
    aaf8:	ffffffff 	.word	0xffffffff
	...
    ab34:	ffff0000 	.word	0xffff0000
    ab38:	ffffffff 	.word	0xffffffff
    ab3c:	ffffffff 	.word	0xffffffff
    ab40:	ffffffff 	.word	0xffffffff
    ab44:	ffffffff 	.word	0xffffffff
    ab48:	ffffffff 	.word	0xffffffff
    ab4c:	ffffffff 	.word	0xffffffff
    ab50:	ffffffff 	.word	0xffffffff
    ab54:	ffffffff 	.word	0xffffffff
    ab58:	ffffffff 	.word	0xffffffff
    ab5c:	ffffffff 	.word	0xffffffff
    ab60:	ffffffff 	.word	0xffffffff
    ab64:	ffffffff 	.word	0xffffffff
    ab68:	ffffffff 	.word	0xffffffff
    ab6c:	ffffffff 	.word	0xffffffff
	...
    aba0:	ffff0000 	.word	0xffff0000
    aba4:	ffffffff 	.word	0xffffffff
    aba8:	0000ffff 	.word	0x0000ffff
	...
    abe4:	ffff0000 	.word	0xffff0000
    abe8:	ffffffff 	.word	0xffffffff
    abec:	0000ffff 	.word	0x0000ffff
	...
    ac18:	ffffffff 	.word	0xffffffff
    ac1c:	ffffffff 	.word	0xffffffff
	...
    ad20:	ffff0000 	.word	0xffff0000
    ad24:	ffffffff 	.word	0xffffffff
    ad28:	0000ffff 	.word	0x0000ffff
	...
    ad74:	ffffffff 	.word	0xffffffff
    ad78:	ffffffff 	.word	0xffffffff
	...
    adb4:	ffff0000 	.word	0xffff0000
    adb8:	ffffffff 	.word	0xffffffff
    adbc:	ffffffff 	.word	0xffffffff
	...
    ade4:	ffff0000 	.word	0xffff0000
    ade8:	ffffffff 	.word	0xffffffff
    adec:	ffffffff 	.word	0xffffffff
	...
    ae20:	ffff0000 	.word	0xffff0000
    ae24:	ffffffff 	.word	0xffffffff
    ae28:	0000ffff 	.word	0x0000ffff
	...
    ae64:	ffff0000 	.word	0xffff0000
    ae68:	ffffffff 	.word	0xffffffff
    ae6c:	0000ffff 	.word	0x0000ffff
	...
    ae98:	ffffffff 	.word	0xffffffff
    ae9c:	ffffffff 	.word	0xffffffff
	...
    afa0:	ffff0000 	.word	0xffff0000
    afa4:	ffffffff 	.word	0xffffffff
    afa8:	0000ffff 	.word	0x0000ffff
	...
    aff4:	ffffffff 	.word	0xffffffff
    aff8:	ffffffff 	.word	0xffffffff
	...
    b034:	ffff0000 	.word	0xffff0000
    b038:	ffffffff 	.word	0xffffffff
    b03c:	ffffffff 	.word	0xffffffff
	...
    b068:	ffffffff 	.word	0xffffffff
    b06c:	ffffffff 	.word	0xffffffff
    b070:	0000ffff 	.word	0x0000ffff
	...
    b0a0:	ffff0000 	.word	0xffff0000
    b0a4:	ffffffff 	.word	0xffffffff
    b0a8:	0000ffff 	.word	0x0000ffff
	...
    b0e4:	ffff0000 	.word	0xffff0000
    b0e8:	ffffffff 	.word	0xffffffff
    b0ec:	0000ffff 	.word	0x0000ffff
	...
    b118:	ffffffff 	.word	0xffffffff
    b11c:	ffffffff 	.word	0xffffffff
	...
    b220:	ffff0000 	.word	0xffff0000
    b224:	ffffffff 	.word	0xffffffff
    b228:	0000ffff 	.word	0x0000ffff
	...
    b274:	ffffffff 	.word	0xffffffff
    b278:	ffffffff 	.word	0xffffffff
	...
    b2b4:	ffffffff 	.word	0xffffffff
    b2b8:	ffffffff 	.word	0xffffffff
    b2bc:	0000ffff 	.word	0x0000ffff
	...
    b2e8:	ffffffff 	.word	0xffffffff
    b2ec:	ffffffff 	.word	0xffffffff
    b2f0:	0000ffff 	.word	0x0000ffff
	...
    b320:	ffff0000 	.word	0xffff0000
    b324:	ffffffff 	.word	0xffffffff
    b328:	0000ffff 	.word	0x0000ffff
	...
    b364:	ffff0000 	.word	0xffff0000
    b368:	ffffffff 	.word	0xffffffff
    b36c:	0000ffff 	.word	0x0000ffff
	...
    b398:	ffffffff 	.word	0xffffffff
    b39c:	ffffffff 	.word	0xffffffff
	...
    b4a0:	ffff0000 	.word	0xffff0000
    b4a4:	ffffffff 	.word	0xffffffff
    b4a8:	0000ffff 	.word	0x0000ffff
	...
    b4f4:	ffffffff 	.word	0xffffffff
    b4f8:	ffffffff 	.word	0xffffffff
	...
    b534:	ffffffff 	.word	0xffffffff
    b538:	ffffffff 	.word	0xffffffff
    b53c:	0000ffff 	.word	0x0000ffff
	...
    b568:	ffffffff 	.word	0xffffffff
    b56c:	ffffffff 	.word	0xffffffff
    b570:	0000ffff 	.word	0x0000ffff
	...
    b5a0:	ffff0000 	.word	0xffff0000
    b5a4:	ffffffff 	.word	0xffffffff
    b5a8:	0000ffff 	.word	0x0000ffff
	...
    b5e4:	ffff0000 	.word	0xffff0000
    b5e8:	ffffffff 	.word	0xffffffff
    b5ec:	0000ffff 	.word	0x0000ffff
	...
    b618:	ffffffff 	.word	0xffffffff
    b61c:	ffffffff 	.word	0xffffffff
	...
    b720:	ffff0000 	.word	0xffff0000
    b724:	ffffffff 	.word	0xffffffff
    b728:	0000ffff 	.word	0x0000ffff
	...
    b774:	ffffffff 	.word	0xffffffff
    b778:	ffffffff 	.word	0xffffffff
	...
    b7b4:	ffffffff 	.word	0xffffffff
    b7b8:	ffffffff 	.word	0xffffffff
    b7bc:	0000ffff 	.word	0x0000ffff
	...
    b7e8:	ffff0000 	.word	0xffff0000
    b7ec:	ffffffff 	.word	0xffffffff
    b7f0:	ffffffff 	.word	0xffffffff
	...
    b820:	ffff0000 	.word	0xffff0000
    b824:	ffffffff 	.word	0xffffffff
    b828:	0000ffff 	.word	0x0000ffff
	...
    b864:	ffff0000 	.word	0xffff0000
    b868:	ffffffff 	.word	0xffffffff
    b86c:	0000ffff 	.word	0x0000ffff
	...
    b898:	ffffffff 	.word	0xffffffff
    b89c:	ffffffff 	.word	0xffffffff
	...
    b9a0:	ffff0000 	.word	0xffff0000
    b9a4:	ffffffff 	.word	0xffffffff
    b9a8:	0000ffff 	.word	0x0000ffff
	...
    b9f4:	ffffffff 	.word	0xffffffff
    b9f8:	ffffffff 	.word	0xffffffff
	...
    ba30:	ffff0000 	.word	0xffff0000
    ba34:	ffffffff 	.word	0xffffffff
    ba38:	ffffffff 	.word	0xffffffff
	...
    ba68:	ffff0000 	.word	0xffff0000
    ba6c:	ffffffff 	.word	0xffffffff
    ba70:	ffffffff 	.word	0xffffffff
	...
    baa0:	ffff0000 	.word	0xffff0000
    baa4:	ffffffff 	.word	0xffffffff
    baa8:	0000ffff 	.word	0x0000ffff
	...
    bae4:	ffff0000 	.word	0xffff0000
    bae8:	ffffffff 	.word	0xffffffff
    baec:	0000ffff 	.word	0x0000ffff
	...
    bb18:	ffffffff 	.word	0xffffffff
    bb1c:	ffffffff 	.word	0xffffffff
	...
    bc20:	ffff0000 	.word	0xffff0000
    bc24:	ffffffff 	.word	0xffffffff
    bc28:	0000ffff 	.word	0x0000ffff
	...
    bc74:	ffffffff 	.word	0xffffffff
    bc78:	ffffffff 	.word	0xffffffff
	...
    bcb0:	ffff0000 	.word	0xffff0000
    bcb4:	ffffffff 	.word	0xffffffff
    bcb8:	ffffffff 	.word	0xffffffff
	...
    bce8:	ffff0000 	.word	0xffff0000
    bcec:	ffffffff 	.word	0xffffffff
    bcf0:	ffffffff 	.word	0xffffffff
    bcf4:	0000ffff 	.word	0x0000ffff
	...
    bd20:	ffff0000 	.word	0xffff0000
    bd24:	ffffffff 	.word	0xffffffff
    bd28:	0000ffff 	.word	0x0000ffff
	...
    bd64:	ffff0000 	.word	0xffff0000
    bd68:	ffffffff 	.word	0xffffffff
    bd6c:	0000ffff 	.word	0x0000ffff
	...
    bd98:	ffffffff 	.word	0xffffffff
    bd9c:	ffffffff 	.word	0xffffffff
	...
    bea0:	ffff0000 	.word	0xffff0000
    bea4:	ffffffff 	.word	0xffffffff
    bea8:	0000ffff 	.word	0x0000ffff
	...
    bef4:	ffffffff 	.word	0xffffffff
    bef8:	ffffffff 	.word	0xffffffff
	...
    bf30:	ffff0000 	.word	0xffff0000
    bf34:	ffffffff 	.word	0xffffffff
    bf38:	ffffffff 	.word	0xffffffff
	...
    bf6c:	ffffffff 	.word	0xffffffff
    bf70:	ffffffff 	.word	0xffffffff
    bf74:	0000ffff 	.word	0x0000ffff
	...
    bfa0:	ffff0000 	.word	0xffff0000
    bfa4:	ffffffff 	.word	0xffffffff
    bfa8:	0000ffff 	.word	0x0000ffff
	...
    bfe4:	ffff0000 	.word	0xffff0000
    bfe8:	ffffffff 	.word	0xffffffff
    bfec:	0000ffff 	.word	0x0000ffff
	...
    c018:	ffffffff 	.word	0xffffffff
    c01c:	ffffffff 	.word	0xffffffff
	...
    c120:	ffff0000 	.word	0xffff0000
    c124:	ffffffff 	.word	0xffffffff
    c128:	0000ffff 	.word	0x0000ffff
	...
    c174:	ffffffff 	.word	0xffffffff
    c178:	ffffffff 	.word	0xffffffff
	...
    c1b0:	ffffffff 	.word	0xffffffff
    c1b4:	ffffffff 	.word	0xffffffff
    c1b8:	0000ffff 	.word	0x0000ffff
	...
    c1ec:	ffffffff 	.word	0xffffffff
    c1f0:	ffffffff 	.word	0xffffffff
    c1f4:	0000ffff 	.word	0x0000ffff
	...
    c220:	ffff0000 	.word	0xffff0000
    c224:	ffffffff 	.word	0xffffffff
    c228:	0000ffff 	.word	0x0000ffff
	...
    c264:	ffff0000 	.word	0xffff0000
    c268:	ffffffff 	.word	0xffffffff
    c26c:	0000ffff 	.word	0x0000ffff
	...
    c298:	ffffffff 	.word	0xffffffff
    c29c:	ffffffff 	.word	0xffffffff
	...
    c3a0:	ffff0000 	.word	0xffff0000
    c3a4:	ffffffff 	.word	0xffffffff
    c3a8:	0000ffff 	.word	0x0000ffff
	...
    c3f4:	ffffffff 	.word	0xffffffff
    c3f8:	ffffffff 	.word	0xffffffff
	...
    c430:	ffffffff 	.word	0xffffffff
    c434:	ffffffff 	.word	0xffffffff
    c438:	0000ffff 	.word	0x0000ffff
	...
    c46c:	ffff0000 	.word	0xffff0000
    c470:	ffffffff 	.word	0xffffffff
    c474:	ffffffff 	.word	0xffffffff
	...
    c4a0:	ffff0000 	.word	0xffff0000
    c4a4:	ffffffff 	.word	0xffffffff
    c4a8:	0000ffff 	.word	0x0000ffff
	...
    c4e4:	ffff0000 	.word	0xffff0000
    c4e8:	ffffffff 	.word	0xffffffff
    c4ec:	0000ffff 	.word	0x0000ffff
	...
    c518:	ffffffff 	.word	0xffffffff
    c51c:	ffffffff 	.word	0xffffffff
	...
    c620:	ffff0000 	.word	0xffff0000
    c624:	ffffffff 	.word	0xffffffff
    c628:	0000ffff 	.word	0x0000ffff
	...
    c674:	ffffffff 	.word	0xffffffff
    c678:	ffffffff 	.word	0xffffffff
	...
    c6b0:	ffffffff 	.word	0xffffffff
    c6b4:	ffffffff 	.word	0xffffffff
    c6b8:	0000ffff 	.word	0x0000ffff
	...
    c6ec:	ffff0000 	.word	0xffff0000
    c6f0:	ffffffff 	.word	0xffffffff
    c6f4:	ffffffff 	.word	0xffffffff
	...
    c720:	ffff0000 	.word	0xffff0000
    c724:	ffffffff 	.word	0xffffffff
    c728:	0000ffff 	.word	0x0000ffff
	...
    c764:	ffff0000 	.word	0xffff0000
    c768:	ffffffff 	.word	0xffffffff
    c76c:	0000ffff 	.word	0x0000ffff
	...
    c798:	ffffffff 	.word	0xffffffff
    c79c:	ffffffff 	.word	0xffffffff
	...
    c8a0:	ffff0000 	.word	0xffff0000
    c8a4:	ffffffff 	.word	0xffffffff
    c8a8:	0000ffff 	.word	0x0000ffff
	...
    c8f4:	ffffffff 	.word	0xffffffff
    c8f8:	ffffffff 	.word	0xffffffff
	...
    c92c:	ffff0000 	.word	0xffff0000
    c930:	ffffffff 	.word	0xffffffff
    c934:	ffffffff 	.word	0xffffffff
	...
    c96c:	ffff0000 	.word	0xffff0000
    c970:	ffffffff 	.word	0xffffffff
    c974:	ffffffff 	.word	0xffffffff
	...
    c9a0:	ffff0000 	.word	0xffff0000
    c9a4:	ffffffff 	.word	0xffffffff
    c9a8:	0000ffff 	.word	0x0000ffff
	...
    c9e4:	ffff0000 	.word	0xffff0000
    c9e8:	ffffffff 	.word	0xffffffff
    c9ec:	0000ffff 	.word	0x0000ffff
	...
    ca18:	ffffffff 	.word	0xffffffff
    ca1c:	ffffffff 	.word	0xffffffff
	...
    cb20:	ffff0000 	.word	0xffff0000
    cb24:	ffffffff 	.word	0xffffffff
    cb28:	0000ffff 	.word	0x0000ffff
	...
    cb74:	ffffffff 	.word	0xffffffff
    cb78:	ffffffff 	.word	0xffffffff
	...
    cbac:	ffff0000 	.word	0xffff0000
    cbb0:	ffffffff 	.word	0xffffffff
    cbb4:	ffffffff 	.word	0xffffffff
	...
    cbf0:	ffffffff 	.word	0xffffffff
    cbf4:	ffffffff 	.word	0xffffffff
    cbf8:	0000ffff 	.word	0x0000ffff
	...
    cc20:	ffff0000 	.word	0xffff0000
    cc24:	ffffffff 	.word	0xffffffff
    cc28:	0000ffff 	.word	0x0000ffff
	...
    cc64:	ffff0000 	.word	0xffff0000
    cc68:	ffffffff 	.word	0xffffffff
    cc6c:	0000ffff 	.word	0x0000ffff
	...
    cc98:	ffffffff 	.word	0xffffffff
    cc9c:	ffffffff 	.word	0xffffffff
	...
    cda0:	ffff0000 	.word	0xffff0000
    cda4:	ffffffff 	.word	0xffffffff
    cda8:	0000ffff 	.word	0x0000ffff
	...
    cdf4:	ffffffff 	.word	0xffffffff
    cdf8:	ffffffff 	.word	0xffffffff
	...
    ce2c:	ffffffff 	.word	0xffffffff
    ce30:	ffffffff 	.word	0xffffffff
    ce34:	ffffffff 	.word	0xffffffff
	...
    ce70:	ffffffff 	.word	0xffffffff
    ce74:	ffffffff 	.word	0xffffffff
    ce78:	0000ffff 	.word	0x0000ffff
	...
    cea0:	ffff0000 	.word	0xffff0000
    cea4:	ffffffff 	.word	0xffffffff
    cea8:	0000ffff 	.word	0x0000ffff
	...
    cee4:	ffff0000 	.word	0xffff0000
    cee8:	ffffffff 	.word	0xffffffff
    ceec:	0000ffff 	.word	0x0000ffff
	...
    cf18:	ffffffff 	.word	0xffffffff
    cf1c:	ffffffff 	.word	0xffffffff
	...
    d020:	ffff0000 	.word	0xffff0000
    d024:	ffffffff 	.word	0xffffffff
    d028:	0000ffff 	.word	0x0000ffff
	...
    d074:	ffffffff 	.word	0xffffffff
    d078:	ffffffff 	.word	0xffffffff
	...
    d0ac:	ffffffff 	.word	0xffffffff
    d0b0:	ffffffff 	.word	0xffffffff
    d0b4:	0000ffff 	.word	0x0000ffff
	...
    d0f0:	ffffffff 	.word	0xffffffff
    d0f4:	ffffffff 	.word	0xffffffff
    d0f8:	0000ffff 	.word	0x0000ffff
	...
    d120:	ffff0000 	.word	0xffff0000
    d124:	ffffffff 	.word	0xffffffff
    d128:	0000ffff 	.word	0x0000ffff
	...
    d164:	ffff0000 	.word	0xffff0000
    d168:	ffffffff 	.word	0xffffffff
    d16c:	0000ffff 	.word	0x0000ffff
	...
    d198:	ffffffff 	.word	0xffffffff
    d19c:	ffffffff 	.word	0xffffffff
	...
    d2a0:	ffff0000 	.word	0xffff0000
    d2a4:	ffffffff 	.word	0xffffffff
    d2a8:	0000ffff 	.word	0x0000ffff
	...
    d2f4:	ffffffff 	.word	0xffffffff
    d2f8:	ffffffff 	.word	0xffffffff
	...
    d32c:	ffffffff 	.word	0xffffffff
    d330:	ffffffff 	.word	0xffffffff
    d334:	0000ffff 	.word	0x0000ffff
	...
    d370:	ffff0000 	.word	0xffff0000
    d374:	ffffffff 	.word	0xffffffff
    d378:	ffffffff 	.word	0xffffffff
	...
    d3a0:	ffff0000 	.word	0xffff0000
    d3a4:	ffffffff 	.word	0xffffffff
    d3a8:	0000ffff 	.word	0x0000ffff
	...
    d3e4:	ffff0000 	.word	0xffff0000
    d3e8:	ffffffff 	.word	0xffffffff
    d3ec:	0000ffff 	.word	0x0000ffff
	...
    d418:	ffffffff 	.word	0xffffffff
    d41c:	ffffffff 	.word	0xffffffff
	...
    d520:	ffff0000 	.word	0xffff0000
    d524:	ffffffff 	.word	0xffffffff
    d528:	0000ffff 	.word	0x0000ffff
	...
    d574:	ffffffff 	.word	0xffffffff
    d578:	ffffffff 	.word	0xffffffff
	...
    d5a8:	ffff0000 	.word	0xffff0000
    d5ac:	ffffffff 	.word	0xffffffff
    d5b0:	ffffffff 	.word	0xffffffff
	...
    d5f0:	ffff0000 	.word	0xffff0000
    d5f4:	ffffffff 	.word	0xffffffff
    d5f8:	ffffffff 	.word	0xffffffff
	...
    d620:	ffff0000 	.word	0xffff0000
    d624:	ffffffff 	.word	0xffffffff
    d628:	0000ffff 	.word	0x0000ffff
	...
    d664:	ffff0000 	.word	0xffff0000
    d668:	ffffffff 	.word	0xffffffff
    d66c:	0000ffff 	.word	0x0000ffff
	...
    d698:	ffffffff 	.word	0xffffffff
    d69c:	ffffffff 	.word	0xffffffff
	...
    d7a0:	ffff0000 	.word	0xffff0000
    d7a4:	ffffffff 	.word	0xffffffff
    d7a8:	0000ffff 	.word	0x0000ffff
	...
    d7f4:	ffffffff 	.word	0xffffffff
    d7f8:	ffffffff 	.word	0xffffffff
	...
    d828:	ffff0000 	.word	0xffff0000
    d82c:	ffffffff 	.word	0xffffffff
    d830:	ffffffff 	.word	0xffffffff
	...
    d870:	ffff0000 	.word	0xffff0000
    d874:	ffffffff 	.word	0xffffffff
    d878:	ffffffff 	.word	0xffffffff
	...
    d8a0:	ffff0000 	.word	0xffff0000
    d8a4:	ffffffff 	.word	0xffffffff
    d8a8:	0000ffff 	.word	0x0000ffff
	...
    d8e4:	ffff0000 	.word	0xffff0000
    d8e8:	ffffffff 	.word	0xffffffff
    d8ec:	0000ffff 	.word	0x0000ffff
	...
    d918:	ffffffff 	.word	0xffffffff
    d91c:	ffffffff 	.word	0xffffffff
	...
    da20:	ffff0000 	.word	0xffff0000
    da24:	ffffffff 	.word	0xffffffff
    da28:	0000ffff 	.word	0x0000ffff
	...
    da74:	ffffffff 	.word	0xffffffff
    da78:	ffffffff 	.word	0xffffffff
	...
    daa8:	ffff0000 	.word	0xffff0000
    daac:	ffffffff 	.word	0xffffffff
    dab0:	ffffffff 	.word	0xffffffff
	...
    daf4:	ffffffff 	.word	0xffffffff
    daf8:	ffffffff 	.word	0xffffffff
    dafc:	0000ffff 	.word	0x0000ffff
	...
    db20:	ffff0000 	.word	0xffff0000
    db24:	ffffffff 	.word	0xffffffff
    db28:	0000ffff 	.word	0x0000ffff
	...
    db64:	ffff0000 	.word	0xffff0000
    db68:	ffffffff 	.word	0xffffffff
    db6c:	0000ffff 	.word	0x0000ffff
	...
    db98:	ffffffff 	.word	0xffffffff
    db9c:	ffffffff 	.word	0xffffffff
	...
    dca0:	ffff0000 	.word	0xffff0000
    dca4:	ffffffff 	.word	0xffffffff
    dca8:	0000ffff 	.word	0x0000ffff
	...
    dcf4:	ffffffff 	.word	0xffffffff
    dcf8:	ffffffff 	.word	0xffffffff
	...
    dd28:	ffffffff 	.word	0xffffffff
    dd2c:	ffffffff 	.word	0xffffffff
    dd30:	0000ffff 	.word	0x0000ffff
	...
    dd74:	ffffffff 	.word	0xffffffff
    dd78:	ffffffff 	.word	0xffffffff
    dd7c:	0000ffff 	.word	0x0000ffff
	...
    dda0:	ffff0000 	.word	0xffff0000
    dda4:	ffffffff 	.word	0xffffffff
    dda8:	0000ffff 	.word	0x0000ffff
	...
    dde4:	ffff0000 	.word	0xffff0000
    dde8:	ffffffff 	.word	0xffffffff
    ddec:	0000ffff 	.word	0x0000ffff
	...
    de18:	ffffffff 	.word	0xffffffff
    de1c:	ffffffff 	.word	0xffffffff
	...
    df20:	ffff0000 	.word	0xffff0000
    df24:	ffffffff 	.word	0xffffffff
    df28:	0000ffff 	.word	0x0000ffff
	...
    df74:	ffffffff 	.word	0xffffffff
    df78:	ffffffff 	.word	0xffffffff
	...
    dfa8:	ffffffff 	.word	0xffffffff
    dfac:	ffffffff 	.word	0xffffffff
    dfb0:	0000ffff 	.word	0x0000ffff
	...
    dff4:	ffffffff 	.word	0xffffffff
    dff8:	ffffffff 	.word	0xffffffff
    dffc:	ffffffff 	.word	0xffffffff
	...
    e020:	ffff0000 	.word	0xffff0000
    e024:	ffffffff 	.word	0xffffffff
    e028:	0000ffff 	.word	0x0000ffff
	...
    e064:	ffff0000 	.word	0xffff0000
    e068:	ffffffff 	.word	0xffffffff
    e06c:	0000ffff 	.word	0x0000ffff
	...
    e098:	ffffffff 	.word	0xffffffff
    e09c:	ffffffff 	.word	0xffffffff
	...
    e1a0:	ffff0000 	.word	0xffff0000
    e1a4:	ffffffff 	.word	0xffffffff
    e1a8:	0000ffff 	.word	0x0000ffff
	...
    e1f4:	ffffffff 	.word	0xffffffff
    e1f8:	ffffffff 	.word	0xffffffff
	...
    e228:	ffffffff 	.word	0xffffffff
    e22c:	ffffffff 	.word	0xffffffff
    e230:	0000ffff 	.word	0x0000ffff
	...
    e274:	ffff0000 	.word	0xffff0000
    e278:	ffffffff 	.word	0xffffffff
    e27c:	ffffffff 	.word	0xffffffff
	...
    e2a0:	ffff0000 	.word	0xffff0000
    e2a4:	ffffffff 	.word	0xffffffff
    e2a8:	0000ffff 	.word	0x0000ffff
	...
    e2e4:	ffff0000 	.word	0xffff0000
    e2e8:	ffffffff 	.word	0xffffffff
    e2ec:	0000ffff 	.word	0x0000ffff
	...
    e318:	ffffffff 	.word	0xffffffff
    e31c:	ffffffff 	.word	0xffffffff
	...
    e420:	ffff0000 	.word	0xffff0000
    e424:	ffffffff 	.word	0xffffffff
    e428:	0000ffff 	.word	0x0000ffff
	...
    e474:	ffffffff 	.word	0xffffffff
    e478:	ffffffff 	.word	0xffffffff
	...
    e4a4:	ffff0000 	.word	0xffff0000
    e4a8:	ffffffff 	.word	0xffffffff
    e4ac:	ffffffff 	.word	0xffffffff
	...
    e4f4:	ffff0000 	.word	0xffff0000
    e4f8:	ffffffff 	.word	0xffffffff
    e4fc:	ffffffff 	.word	0xffffffff
	...
    e520:	ffff0000 	.word	0xffff0000
    e524:	ffffffff 	.word	0xffffffff
    e528:	0000ffff 	.word	0x0000ffff
	...
    e564:	ffff0000 	.word	0xffff0000
    e568:	ffffffff 	.word	0xffffffff
    e56c:	0000ffff 	.word	0x0000ffff
	...
    e598:	ffffffff 	.word	0xffffffff
    e59c:	ffffffff 	.word	0xffffffff
	...
    e6a0:	ffff0000 	.word	0xffff0000
    e6a4:	ffffffff 	.word	0xffffffff
    e6a8:	ffffffff 	.word	0xffffffff
    e6ac:	ffffffff 	.word	0xffffffff
    e6b0:	ffffffff 	.word	0xffffffff
    e6b4:	ffffffff 	.word	0xffffffff
    e6b8:	ffffffff 	.word	0xffffffff
    e6bc:	ffffffff 	.word	0xffffffff
    e6c0:	ffffffff 	.word	0xffffffff
    e6c4:	ffffffff 	.word	0xffffffff
    e6c8:	ffffffff 	.word	0xffffffff
    e6cc:	ffffffff 	.word	0xffffffff
    e6d0:	ffffffff 	.word	0xffffffff
    e6d4:	ffffffff 	.word	0xffffffff
    e6d8:	ffffffff 	.word	0xffffffff
    e6dc:	ffffffff 	.word	0xffffffff
    e6e0:	ffffffff 	.word	0xffffffff
    e6e4:	ffffffff 	.word	0xffffffff
    e6e8:	ffffffff 	.word	0xffffffff
    e6ec:	ffffffff 	.word	0xffffffff
    e6f0:	ffffffff 	.word	0xffffffff
    e6f4:	ffffffff 	.word	0xffffffff
    e6f8:	ffffffff 	.word	0xffffffff
	...
    e724:	ffff0000 	.word	0xffff0000
    e728:	ffffffff 	.word	0xffffffff
    e72c:	ffffffff 	.word	0xffffffff
	...
    e778:	ffffffff 	.word	0xffffffff
    e77c:	ffffffff 	.word	0xffffffff
    e780:	0000ffff 	.word	0x0000ffff
	...
    e7a0:	ffff0000 	.word	0xffff0000
    e7a4:	ffffffff 	.word	0xffffffff
    e7a8:	0000ffff 	.word	0x0000ffff
	...
    e7e4:	ffff0000 	.word	0xffff0000
    e7e8:	ffffffff 	.word	0xffffffff
    e7ec:	0000ffff 	.word	0x0000ffff
	...
    e818:	ffffffff 	.word	0xffffffff
    e81c:	ffffffff 	.word	0xffffffff
	...
    e920:	ffff0000 	.word	0xffff0000
    e924:	ffffffff 	.word	0xffffffff
    e928:	ffffffff 	.word	0xffffffff
    e92c:	ffffffff 	.word	0xffffffff
    e930:	ffffffff 	.word	0xffffffff
    e934:	ffffffff 	.word	0xffffffff
    e938:	ffffffff 	.word	0xffffffff
    e93c:	ffffffff 	.word	0xffffffff
    e940:	ffffffff 	.word	0xffffffff
    e944:	ffffffff 	.word	0xffffffff
    e948:	ffffffff 	.word	0xffffffff
    e94c:	ffffffff 	.word	0xffffffff
    e950:	ffffffff 	.word	0xffffffff
    e954:	ffffffff 	.word	0xffffffff
    e958:	ffffffff 	.word	0xffffffff
    e95c:	ffffffff 	.word	0xffffffff
    e960:	ffffffff 	.word	0xffffffff
    e964:	ffffffff 	.word	0xffffffff
    e968:	ffffffff 	.word	0xffffffff
    e96c:	ffffffff 	.word	0xffffffff
    e970:	ffffffff 	.word	0xffffffff
    e974:	ffffffff 	.word	0xffffffff
    e978:	ffffffff 	.word	0xffffffff
	...
    e9a4:	ffff0000 	.word	0xffff0000
    e9a8:	ffffffff 	.word	0xffffffff
    e9ac:	ffffffff 	.word	0xffffffff
	...
    e9f8:	ffffffff 	.word	0xffffffff
    e9fc:	ffffffff 	.word	0xffffffff
    ea00:	0000ffff 	.word	0x0000ffff
	...
    ea20:	ffff0000 	.word	0xffff0000
    ea24:	ffffffff 	.word	0xffffffff
    ea28:	0000ffff 	.word	0x0000ffff
	...
    ea64:	ffff0000 	.word	0xffff0000
    ea68:	ffffffff 	.word	0xffffffff
    ea6c:	0000ffff 	.word	0x0000ffff
	...
    ea98:	ffffffff 	.word	0xffffffff
    ea9c:	ffffffff 	.word	0xffffffff
	...
    eba0:	ffff0000 	.word	0xffff0000
    eba4:	ffffffff 	.word	0xffffffff
    eba8:	ffffffff 	.word	0xffffffff
    ebac:	ffffffff 	.word	0xffffffff
    ebb0:	ffffffff 	.word	0xffffffff
    ebb4:	ffffffff 	.word	0xffffffff
    ebb8:	ffffffff 	.word	0xffffffff
    ebbc:	ffffffff 	.word	0xffffffff
    ebc0:	ffffffff 	.word	0xffffffff
    ebc4:	ffffffff 	.word	0xffffffff
    ebc8:	ffffffff 	.word	0xffffffff
    ebcc:	ffffffff 	.word	0xffffffff
    ebd0:	ffffffff 	.word	0xffffffff
    ebd4:	ffffffff 	.word	0xffffffff
    ebd8:	ffffffff 	.word	0xffffffff
    ebdc:	ffffffff 	.word	0xffffffff
    ebe0:	ffffffff 	.word	0xffffffff
    ebe4:	ffffffff 	.word	0xffffffff
    ebe8:	ffffffff 	.word	0xffffffff
    ebec:	ffffffff 	.word	0xffffffff
    ebf0:	ffffffff 	.word	0xffffffff
    ebf4:	ffffffff 	.word	0xffffffff
    ebf8:	ffffffff 	.word	0xffffffff
	...
    ec24:	ffff0000 	.word	0xffff0000
    ec28:	ffffffff 	.word	0xffffffff
    ec2c:	0000ffff 	.word	0x0000ffff
	...
    ec78:	ffffffff 	.word	0xffffffff
    ec7c:	ffffffff 	.word	0xffffffff
    ec80:	0000ffff 	.word	0x0000ffff
	...
    eca0:	ffff0000 	.word	0xffff0000
    eca4:	ffffffff 	.word	0xffffffff
    eca8:	0000ffff 	.word	0x0000ffff
	...
    ece4:	ffff0000 	.word	0xffff0000
    ece8:	ffffffff 	.word	0xffffffff
    ecec:	0000ffff 	.word	0x0000ffff
	...
    ed18:	ffffffff 	.word	0xffffffff
    ed1c:	ffffffff 	.word	0xffffffff
	...
    ee20:	ffff0000 	.word	0xffff0000
    ee24:	ffffffff 	.word	0xffffffff
    ee28:	ffffffff 	.word	0xffffffff
    ee2c:	ffffffff 	.word	0xffffffff
    ee30:	ffffffff 	.word	0xffffffff
    ee34:	ffffffff 	.word	0xffffffff
    ee38:	ffffffff 	.word	0xffffffff
    ee3c:	ffffffff 	.word	0xffffffff
    ee40:	ffffffff 	.word	0xffffffff
    ee44:	ffffffff 	.word	0xffffffff
    ee48:	ffffffff 	.word	0xffffffff
    ee4c:	ffffffff 	.word	0xffffffff
    ee50:	ffffffff 	.word	0xffffffff
    ee54:	ffffffff 	.word	0xffffffff
    ee58:	ffffffff 	.word	0xffffffff
    ee5c:	ffffffff 	.word	0xffffffff
    ee60:	ffffffff 	.word	0xffffffff
    ee64:	ffffffff 	.word	0xffffffff
    ee68:	ffffffff 	.word	0xffffffff
    ee6c:	ffffffff 	.word	0xffffffff
    ee70:	ffffffff 	.word	0xffffffff
    ee74:	ffffffff 	.word	0xffffffff
    ee78:	ffffffff 	.word	0xffffffff
	...
    eea4:	ffff0000 	.word	0xffff0000
    eea8:	ffffffff 	.word	0xffffffff
    eeac:	0000ffff 	.word	0x0000ffff
	...
    eef8:	ffff0000 	.word	0xffff0000
    eefc:	ffffffff 	.word	0xffffffff
    ef00:	0000ffff 	.word	0x0000ffff
	...
    ef20:	ffff0000 	.word	0xffff0000
    ef24:	ffffffff 	.word	0xffffffff
    ef28:	0000ffff 	.word	0x0000ffff
	...
    ef64:	ffff0000 	.word	0xffff0000
    ef68:	ffffffff 	.word	0xffffffff
    ef6c:	0000ffff 	.word	0x0000ffff
	...
    ef98:	ffffffff 	.word	0xffffffff
    ef9c:	ffffffff 	.word	0xffffffff
    efa0:	ffffffff 	.word	0xffffffff
    efa4:	ffffffff 	.word	0xffffffff
    efa8:	ffffffff 	.word	0xffffffff
    efac:	ffffffff 	.word	0xffffffff
    efb0:	ffffffff 	.word	0xffffffff
    efb4:	ffffffff 	.word	0xffffffff
    efb8:	ffffffff 	.word	0xffffffff
    efbc:	ffffffff 	.word	0xffffffff
    efc0:	ffffffff 	.word	0xffffffff
    efc4:	ffffffff 	.word	0xffffffff
    efc8:	ffffffff 	.word	0xffffffff
    efcc:	ffffffff 	.word	0xffffffff
    efd0:	ffffffff 	.word	0xffffffff
    efd4:	ffffffff 	.word	0xffffffff
    efd8:	ffffffff 	.word	0xffffffff
    efdc:	ffffffff 	.word	0xffffffff
    efe0:	ffffffff 	.word	0xffffffff
    efe4:	ffffffff 	.word	0xffffffff
    efe8:	ffffffff 	.word	0xffffffff
	...
    f178:	ffff0000 	.word	0xffff0000
    f17c:	ffffffff 	.word	0xffffffff
    f180:	0000ffff 	.word	0x0000ffff
	...
    f1a0:	ffff0000 	.word	0xffff0000
    f1a4:	ffffffff 	.word	0xffffffff
    f1a8:	0000ffff 	.word	0x0000ffff
	...
    f1e4:	ffff0000 	.word	0xffff0000
    f1e8:	ffffffff 	.word	0xffffffff
    f1ec:	0000ffff 	.word	0x0000ffff
	...
    f218:	ffffffff 	.word	0xffffffff
    f21c:	ffffffff 	.word	0xffffffff
    f220:	ffffffff 	.word	0xffffffff
    f224:	ffffffff 	.word	0xffffffff
    f228:	ffffffff 	.word	0xffffffff
    f22c:	ffffffff 	.word	0xffffffff
    f230:	ffffffff 	.word	0xffffffff
    f234:	ffffffff 	.word	0xffffffff
    f238:	ffffffff 	.word	0xffffffff
    f23c:	ffffffff 	.word	0xffffffff
    f240:	ffffffff 	.word	0xffffffff
    f244:	ffffffff 	.word	0xffffffff
    f248:	ffffffff 	.word	0xffffffff
    f24c:	ffffffff 	.word	0xffffffff
    f250:	ffffffff 	.word	0xffffffff
    f254:	ffffffff 	.word	0xffffffff
    f258:	ffffffff 	.word	0xffffffff
    f25c:	ffffffff 	.word	0xffffffff
    f260:	ffffffff 	.word	0xffffffff
    f264:	ffffffff 	.word	0xffffffff
    f268:	ffffffff 	.word	0xffffffff
	...
    f420:	ffff0000 	.word	0xffff0000
    f424:	ffffffff 	.word	0xffffffff
    f428:	0000ffff 	.word	0x0000ffff
	...
    f498:	ffffffff 	.word	0xffffffff
    f49c:	ffffffff 	.word	0xffffffff
    f4a0:	ffffffff 	.word	0xffffffff
    f4a4:	ffffffff 	.word	0xffffffff
    f4a8:	ffffffff 	.word	0xffffffff
    f4ac:	ffffffff 	.word	0xffffffff
    f4b0:	ffffffff 	.word	0xffffffff
    f4b4:	ffffffff 	.word	0xffffffff
    f4b8:	ffffffff 	.word	0xffffffff
    f4bc:	ffffffff 	.word	0xffffffff
    f4c0:	ffffffff 	.word	0xffffffff
    f4c4:	ffffffff 	.word	0xffffffff
    f4c8:	ffffffff 	.word	0xffffffff
    f4cc:	ffffffff 	.word	0xffffffff
    f4d0:	ffffffff 	.word	0xffffffff
    f4d4:	ffffffff 	.word	0xffffffff
    f4d8:	ffffffff 	.word	0xffffffff
    f4dc:	ffffffff 	.word	0xffffffff
    f4e0:	ffffffff 	.word	0xffffffff
    f4e4:	ffffffff 	.word	0xffffffff
    f4e8:	ffffffff 	.word	0xffffffff
	...
    f718:	ffffffff 	.word	0xffffffff
    f71c:	ffffffff 	.word	0xffffffff
    f720:	ffffffff 	.word	0xffffffff
    f724:	ffffffff 	.word	0xffffffff
    f728:	ffffffff 	.word	0xffffffff
    f72c:	ffffffff 	.word	0xffffffff
    f730:	ffffffff 	.word	0xffffffff
    f734:	ffffffff 	.word	0xffffffff
    f738:	ffffffff 	.word	0xffffffff
    f73c:	ffffffff 	.word	0xffffffff
    f740:	ffffffff 	.word	0xffffffff
    f744:	ffffffff 	.word	0xffffffff
    f748:	ffffffff 	.word	0xffffffff
    f74c:	ffffffff 	.word	0xffffffff
    f750:	ffffffff 	.word	0xffffffff
    f754:	ffffffff 	.word	0xffffffff
    f758:	ffffffff 	.word	0xffffffff
    f75c:	ffffffff 	.word	0xffffffff
    f760:	ffffffff 	.word	0xffffffff
    f764:	ffffffff 	.word	0xffffffff
    f768:	ffffffff 	.word	0xffffffff
	...
   13d14:	ffff0000 	.word	0xffff0000
   13d18:	ffffffff 	.word	0xffffffff
   13d1c:	ffffffff 	.word	0xffffffff
   13d20:	ffffffff 	.word	0xffffffff
   13d24:	ffffffff 	.word	0xffffffff
   13d28:	ffffffff 	.word	0xffffffff
   13d2c:	ffffffff 	.word	0xffffffff
   13d30:	ffffffff 	.word	0xffffffff
   13d34:	ffffffff 	.word	0xffffffff
   13d38:	ffffffff 	.word	0xffffffff
   13d3c:	ffffffff 	.word	0xffffffff
   13d40:	ffffffff 	.word	0xffffffff
   13d44:	ffffffff 	.word	0xffffffff
   13d48:	ffffffff 	.word	0xffffffff
   13d4c:	ffffffff 	.word	0xffffffff
   13d50:	ffffffff 	.word	0xffffffff
   13d54:	ffffffff 	.word	0xffffffff
   13d58:	ffffffff 	.word	0xffffffff
   13d5c:	ffffffff 	.word	0xffffffff
   13d60:	ffffffff 	.word	0xffffffff
   13d64:	ffffffff 	.word	0xffffffff
   13d68:	ffffffff 	.word	0xffffffff
	...
   13f94:	ffff0000 	.word	0xffff0000
   13f98:	ffffffff 	.word	0xffffffff
   13f9c:	ffffffff 	.word	0xffffffff
   13fa0:	ffffffff 	.word	0xffffffff
   13fa4:	ffffffff 	.word	0xffffffff
   13fa8:	ffffffff 	.word	0xffffffff
   13fac:	ffffffff 	.word	0xffffffff
   13fb0:	ffffffff 	.word	0xffffffff
   13fb4:	ffffffff 	.word	0xffffffff
   13fb8:	ffffffff 	.word	0xffffffff
   13fbc:	ffffffff 	.word	0xffffffff
   13fc0:	ffffffff 	.word	0xffffffff
   13fc4:	ffffffff 	.word	0xffffffff
   13fc8:	ffffffff 	.word	0xffffffff
   13fcc:	ffffffff 	.word	0xffffffff
   13fd0:	ffffffff 	.word	0xffffffff
   13fd4:	ffffffff 	.word	0xffffffff
   13fd8:	ffffffff 	.word	0xffffffff
   13fdc:	ffffffff 	.word	0xffffffff
   13fe0:	ffffffff 	.word	0xffffffff
   13fe4:	ffffffff 	.word	0xffffffff
   13fe8:	ffffffff 	.word	0xffffffff
	...
   1419c:	ffff0000 	.word	0xffff0000
   141a0:	ffffffff 	.word	0xffffffff
   141a4:	ffffffff 	.word	0xffffffff
   141a8:	ffffffff 	.word	0xffffffff
   141ac:	ffffffff 	.word	0xffffffff
   141b0:	ffffffff 	.word	0xffffffff
   141b4:	ffffffff 	.word	0xffffffff
   141b8:	ffffffff 	.word	0xffffffff
   141bc:	ffffffff 	.word	0xffffffff
   141c0:	ffffffff 	.word	0xffffffff
   141c4:	ffffffff 	.word	0xffffffff
   141c8:	ffffffff 	.word	0xffffffff
   141cc:	ffffffff 	.word	0xffffffff
   141d0:	ffffffff 	.word	0xffffffff
   141d4:	ffffffff 	.word	0xffffffff
   141d8:	ffffffff 	.word	0xffffffff
   141dc:	ffffffff 	.word	0xffffffff
   141e0:	ffffffff 	.word	0xffffffff
   141e4:	ffffffff 	.word	0xffffffff
   141e8:	ffffffff 	.word	0xffffffff
	...
   14214:	ffff0000 	.word	0xffff0000
   14218:	ffffffff 	.word	0xffffffff
   1421c:	ffffffff 	.word	0xffffffff
   14220:	ffffffff 	.word	0xffffffff
   14224:	ffffffff 	.word	0xffffffff
   14228:	ffffffff 	.word	0xffffffff
   1422c:	ffffffff 	.word	0xffffffff
   14230:	ffffffff 	.word	0xffffffff
   14234:	ffffffff 	.word	0xffffffff
   14238:	ffffffff 	.word	0xffffffff
   1423c:	ffffffff 	.word	0xffffffff
   14240:	ffffffff 	.word	0xffffffff
   14244:	ffffffff 	.word	0xffffffff
   14248:	ffffffff 	.word	0xffffffff
   1424c:	ffffffff 	.word	0xffffffff
   14250:	ffffffff 	.word	0xffffffff
   14254:	ffffffff 	.word	0xffffffff
   14258:	ffffffff 	.word	0xffffffff
   1425c:	ffffffff 	.word	0xffffffff
   14260:	ffffffff 	.word	0xffffffff
   14264:	ffffffff 	.word	0xffffffff
   14268:	ffffffff 	.word	0xffffffff
	...
   143f8:	ffffffff 	.word	0xffffffff
   143fc:	ffffffff 	.word	0xffffffff
	...
   1441c:	ffff0000 	.word	0xffff0000
   14420:	ffffffff 	.word	0xffffffff
   14424:	ffffffff 	.word	0xffffffff
   14428:	ffffffff 	.word	0xffffffff
   1442c:	ffffffff 	.word	0xffffffff
   14430:	ffffffff 	.word	0xffffffff
   14434:	ffffffff 	.word	0xffffffff
   14438:	ffffffff 	.word	0xffffffff
   1443c:	ffffffff 	.word	0xffffffff
   14440:	ffffffff 	.word	0xffffffff
   14444:	ffffffff 	.word	0xffffffff
   14448:	ffffffff 	.word	0xffffffff
   1444c:	ffffffff 	.word	0xffffffff
   14450:	ffffffff 	.word	0xffffffff
   14454:	ffffffff 	.word	0xffffffff
   14458:	ffffffff 	.word	0xffffffff
   1445c:	ffffffff 	.word	0xffffffff
   14460:	ffffffff 	.word	0xffffffff
   14464:	ffffffff 	.word	0xffffffff
   14468:	ffffffff 	.word	0xffffffff
	...
   14494:	ffff0000 	.word	0xffff0000
   14498:	ffffffff 	.word	0xffffffff
   1449c:	ffffffff 	.word	0xffffffff
   144a0:	ffffffff 	.word	0xffffffff
   144a4:	ffffffff 	.word	0xffffffff
   144a8:	ffffffff 	.word	0xffffffff
   144ac:	ffffffff 	.word	0xffffffff
   144b0:	ffffffff 	.word	0xffffffff
   144b4:	ffffffff 	.word	0xffffffff
   144b8:	ffffffff 	.word	0xffffffff
   144bc:	ffffffff 	.word	0xffffffff
   144c0:	ffffffff 	.word	0xffffffff
   144c4:	ffffffff 	.word	0xffffffff
   144c8:	ffffffff 	.word	0xffffffff
   144cc:	ffffffff 	.word	0xffffffff
   144d0:	ffffffff 	.word	0xffffffff
   144d4:	ffffffff 	.word	0xffffffff
   144d8:	ffffffff 	.word	0xffffffff
   144dc:	ffffffff 	.word	0xffffffff
   144e0:	ffffffff 	.word	0xffffffff
   144e4:	ffffffff 	.word	0xffffffff
   144e8:	ffffffff 	.word	0xffffffff
	...
   14624:	ffff0000 	.word	0xffff0000
   14628:	ffffffff 	.word	0xffffffff
   1462c:	0000ffff 	.word	0x0000ffff
	...
   14678:	ffffffff 	.word	0xffffffff
   1467c:	ffffffff 	.word	0xffffffff
	...
   1469c:	ffff0000 	.word	0xffff0000
   146a0:	ffffffff 	.word	0xffffffff
   146a4:	ffffffff 	.word	0xffffffff
   146a8:	ffffffff 	.word	0xffffffff
   146ac:	ffffffff 	.word	0xffffffff
   146b0:	ffffffff 	.word	0xffffffff
   146b4:	ffffffff 	.word	0xffffffff
   146b8:	ffffffff 	.word	0xffffffff
   146bc:	ffffffff 	.word	0xffffffff
   146c0:	ffffffff 	.word	0xffffffff
   146c4:	ffffffff 	.word	0xffffffff
   146c8:	ffffffff 	.word	0xffffffff
   146cc:	ffffffff 	.word	0xffffffff
   146d0:	ffffffff 	.word	0xffffffff
   146d4:	ffffffff 	.word	0xffffffff
   146d8:	ffffffff 	.word	0xffffffff
   146dc:	ffffffff 	.word	0xffffffff
   146e0:	ffffffff 	.word	0xffffffff
   146e4:	ffffffff 	.word	0xffffffff
   146e8:	ffffffff 	.word	0xffffffff
	...
   14714:	ffff0000 	.word	0xffff0000
   14718:	ffffffff 	.word	0xffffffff
   1471c:	0000ffff 	.word	0x0000ffff
	...
   14764:	ffffffff 	.word	0xffffffff
   14768:	ffffffff 	.word	0xffffffff
	...
   14820:	ffff0000 	.word	0xffff0000
   14824:	ffffffff 	.word	0xffffffff
   14828:	ffffffff 	.word	0xffffffff
   1482c:	ffffffff 	.word	0xffffffff
   14830:	ffffffff 	.word	0xffffffff
   14834:	ffffffff 	.word	0xffffffff
   14838:	ffffffff 	.word	0xffffffff
   1483c:	ffffffff 	.word	0xffffffff
   14840:	ffffffff 	.word	0xffffffff
   14844:	ffffffff 	.word	0xffffffff
   14848:	ffffffff 	.word	0xffffffff
   1484c:	ffffffff 	.word	0xffffffff
   14850:	ffffffff 	.word	0xffffffff
   14854:	ffffffff 	.word	0xffffffff
   14858:	ffffffff 	.word	0xffffffff
   1485c:	ffffffff 	.word	0xffffffff
   14860:	ffffffff 	.word	0xffffffff
   14864:	ffffffff 	.word	0xffffffff
   14868:	ffffffff 	.word	0xffffffff
   1486c:	ffffffff 	.word	0xffffffff
   14870:	ffffffff 	.word	0xffffffff
   14874:	ffffffff 	.word	0xffffffff
   14878:	ffffffff 	.word	0xffffffff
	...
   148a4:	ffff0000 	.word	0xffff0000
   148a8:	ffffffff 	.word	0xffffffff
   148ac:	0000ffff 	.word	0x0000ffff
	...
   148f4:	ffff0000 	.word	0xffff0000
   148f8:	ffffffff 	.word	0xffffffff
   148fc:	ffffffff 	.word	0xffffffff
	...
   1491c:	ffff0000 	.word	0xffff0000
   14920:	ffffffff 	.word	0xffffffff
   14924:	ffffffff 	.word	0xffffffff
   14928:	ffffffff 	.word	0xffffffff
   1492c:	ffffffff 	.word	0xffffffff
   14930:	ffffffff 	.word	0xffffffff
   14934:	ffffffff 	.word	0xffffffff
   14938:	ffffffff 	.word	0xffffffff
   1493c:	ffffffff 	.word	0xffffffff
   14940:	ffffffff 	.word	0xffffffff
   14944:	ffffffff 	.word	0xffffffff
   14948:	ffffffff 	.word	0xffffffff
   1494c:	ffffffff 	.word	0xffffffff
   14950:	ffffffff 	.word	0xffffffff
   14954:	ffffffff 	.word	0xffffffff
   14958:	ffffffff 	.word	0xffffffff
   1495c:	ffffffff 	.word	0xffffffff
   14960:	ffffffff 	.word	0xffffffff
   14964:	ffffffff 	.word	0xffffffff
   14968:	ffffffff 	.word	0xffffffff
	...
   14994:	ffff0000 	.word	0xffff0000
   14998:	ffffffff 	.word	0xffffffff
   1499c:	0000ffff 	.word	0x0000ffff
	...
   149e4:	ffffffff 	.word	0xffffffff
   149e8:	ffffffff 	.word	0xffffffff
	...
   14aa0:	ffff0000 	.word	0xffff0000
   14aa4:	ffffffff 	.word	0xffffffff
   14aa8:	ffffffff 	.word	0xffffffff
   14aac:	ffffffff 	.word	0xffffffff
   14ab0:	ffffffff 	.word	0xffffffff
   14ab4:	ffffffff 	.word	0xffffffff
   14ab8:	ffffffff 	.word	0xffffffff
   14abc:	ffffffff 	.word	0xffffffff
   14ac0:	ffffffff 	.word	0xffffffff
   14ac4:	ffffffff 	.word	0xffffffff
   14ac8:	ffffffff 	.word	0xffffffff
   14acc:	ffffffff 	.word	0xffffffff
   14ad0:	ffffffff 	.word	0xffffffff
   14ad4:	ffffffff 	.word	0xffffffff
   14ad8:	ffffffff 	.word	0xffffffff
   14adc:	ffffffff 	.word	0xffffffff
   14ae0:	ffffffff 	.word	0xffffffff
   14ae4:	ffffffff 	.word	0xffffffff
   14ae8:	ffffffff 	.word	0xffffffff
   14aec:	ffffffff 	.word	0xffffffff
   14af0:	ffffffff 	.word	0xffffffff
   14af4:	ffffffff 	.word	0xffffffff
   14af8:	ffffffff 	.word	0xffffffff
	...
   14b24:	ffff0000 	.word	0xffff0000
   14b28:	ffffffff 	.word	0xffffffff
   14b2c:	ffffffff 	.word	0xffffffff
	...
   14b74:	ffff0000 	.word	0xffff0000
   14b78:	ffffffff 	.word	0xffffffff
   14b7c:	ffffffff 	.word	0xffffffff
	...
   14b9c:	ffff0000 	.word	0xffff0000
   14ba0:	ffffffff 	.word	0xffffffff
   14ba4:	0000ffff 	.word	0x0000ffff
	...
   14c14:	ffff0000 	.word	0xffff0000
   14c18:	ffffffff 	.word	0xffffffff
   14c1c:	0000ffff 	.word	0x0000ffff
	...
   14c64:	ffffffff 	.word	0xffffffff
   14c68:	ffffffff 	.word	0xffffffff
	...
   14d20:	ffff0000 	.word	0xffff0000
   14d24:	ffffffff 	.word	0xffffffff
   14d28:	ffffffff 	.word	0xffffffff
   14d2c:	ffffffff 	.word	0xffffffff
   14d30:	ffffffff 	.word	0xffffffff
   14d34:	ffffffff 	.word	0xffffffff
   14d38:	ffffffff 	.word	0xffffffff
   14d3c:	ffffffff 	.word	0xffffffff
   14d40:	ffffffff 	.word	0xffffffff
   14d44:	ffffffff 	.word	0xffffffff
   14d48:	ffffffff 	.word	0xffffffff
   14d4c:	ffffffff 	.word	0xffffffff
   14d50:	ffffffff 	.word	0xffffffff
   14d54:	ffffffff 	.word	0xffffffff
   14d58:	ffffffff 	.word	0xffffffff
   14d5c:	ffffffff 	.word	0xffffffff
   14d60:	ffffffff 	.word	0xffffffff
   14d64:	ffffffff 	.word	0xffffffff
   14d68:	ffffffff 	.word	0xffffffff
   14d6c:	ffffffff 	.word	0xffffffff
   14d70:	ffffffff 	.word	0xffffffff
   14d74:	ffffffff 	.word	0xffffffff
   14d78:	ffffffff 	.word	0xffffffff
	...
   14da4:	ffff0000 	.word	0xffff0000
   14da8:	ffffffff 	.word	0xffffffff
   14dac:	ffffffff 	.word	0xffffffff
	...
   14df4:	ffff0000 	.word	0xffff0000
   14df8:	ffffffff 	.word	0xffffffff
   14dfc:	ffffffff 	.word	0xffffffff
	...
   14e1c:	ffff0000 	.word	0xffff0000
   14e20:	ffffffff 	.word	0xffffffff
   14e24:	0000ffff 	.word	0x0000ffff
	...
   14e94:	ffff0000 	.word	0xffff0000
   14e98:	ffffffff 	.word	0xffffffff
   14e9c:	0000ffff 	.word	0x0000ffff
	...
   14ee4:	ffffffff 	.word	0xffffffff
   14ee8:	ffffffff 	.word	0xffffffff
	...
   14fa0:	ffff0000 	.word	0xffff0000
   14fa4:	ffffffff 	.word	0xffffffff
   14fa8:	ffffffff 	.word	0xffffffff
   14fac:	ffffffff 	.word	0xffffffff
   14fb0:	ffffffff 	.word	0xffffffff
   14fb4:	ffffffff 	.word	0xffffffff
   14fb8:	ffffffff 	.word	0xffffffff
   14fbc:	ffffffff 	.word	0xffffffff
   14fc0:	ffffffff 	.word	0xffffffff
   14fc4:	ffffffff 	.word	0xffffffff
   14fc8:	ffffffff 	.word	0xffffffff
   14fcc:	ffffffff 	.word	0xffffffff
   14fd0:	ffffffff 	.word	0xffffffff
   14fd4:	ffffffff 	.word	0xffffffff
   14fd8:	ffffffff 	.word	0xffffffff
   14fdc:	ffffffff 	.word	0xffffffff
   14fe0:	ffffffff 	.word	0xffffffff
   14fe4:	ffffffff 	.word	0xffffffff
   14fe8:	ffffffff 	.word	0xffffffff
   14fec:	ffffffff 	.word	0xffffffff
   14ff0:	ffffffff 	.word	0xffffffff
   14ff4:	ffffffff 	.word	0xffffffff
   14ff8:	ffffffff 	.word	0xffffffff
	...
   15024:	ffff0000 	.word	0xffff0000
   15028:	ffffffff 	.word	0xffffffff
   1502c:	ffffffff 	.word	0xffffffff
	...
   15074:	ffffffff 	.word	0xffffffff
   15078:	ffffffff 	.word	0xffffffff
   1507c:	0000ffff 	.word	0x0000ffff
	...
   1509c:	ffff0000 	.word	0xffff0000
   150a0:	ffffffff 	.word	0xffffffff
   150a4:	0000ffff 	.word	0x0000ffff
	...
   15114:	ffff0000 	.word	0xffff0000
   15118:	ffffffff 	.word	0xffffffff
   1511c:	0000ffff 	.word	0x0000ffff
	...
   15164:	ffffffff 	.word	0xffffffff
   15168:	ffffffff 	.word	0xffffffff
	...
   15220:	ffff0000 	.word	0xffff0000
   15224:	ffffffff 	.word	0xffffffff
   15228:	0000ffff 	.word	0x0000ffff
	...
   15274:	ffffffff 	.word	0xffffffff
   15278:	ffffffff 	.word	0xffffffff
	...
   152a8:	ffffffff 	.word	0xffffffff
   152ac:	ffffffff 	.word	0xffffffff
   152b0:	0000ffff 	.word	0x0000ffff
	...
   152f4:	ffffffff 	.word	0xffffffff
   152f8:	ffffffff 	.word	0xffffffff
   152fc:	0000ffff 	.word	0x0000ffff
	...
   1531c:	ffff0000 	.word	0xffff0000
   15320:	ffffffff 	.word	0xffffffff
   15324:	0000ffff 	.word	0x0000ffff
	...
   15394:	ffff0000 	.word	0xffff0000
   15398:	ffffffff 	.word	0xffffffff
   1539c:	0000ffff 	.word	0x0000ffff
	...
   153e4:	ffffffff 	.word	0xffffffff
   153e8:	ffffffff 	.word	0xffffffff
	...
   154a0:	ffff0000 	.word	0xffff0000
   154a4:	ffffffff 	.word	0xffffffff
   154a8:	0000ffff 	.word	0x0000ffff
	...
   154f4:	ffffffff 	.word	0xffffffff
   154f8:	ffffffff 	.word	0xffffffff
	...
   15528:	ffffffff 	.word	0xffffffff
   1552c:	ffffffff 	.word	0xffffffff
   15530:	0000ffff 	.word	0x0000ffff
	...
   15574:	ffffffff 	.word	0xffffffff
   15578:	ffffffff 	.word	0xffffffff
   1557c:	0000ffff 	.word	0x0000ffff
	...
   1559c:	ffff0000 	.word	0xffff0000
   155a0:	ffffffff 	.word	0xffffffff
   155a4:	0000ffff 	.word	0x0000ffff
	...
   15614:	ffff0000 	.word	0xffff0000
   15618:	ffffffff 	.word	0xffffffff
   1561c:	0000ffff 	.word	0x0000ffff
	...
   15664:	ffffffff 	.word	0xffffffff
   15668:	ffffffff 	.word	0xffffffff
	...
   15720:	ffff0000 	.word	0xffff0000
   15724:	ffffffff 	.word	0xffffffff
   15728:	0000ffff 	.word	0x0000ffff
	...
   15774:	ffffffff 	.word	0xffffffff
   15778:	ffffffff 	.word	0xffffffff
	...
   157a8:	ffffffff 	.word	0xffffffff
   157ac:	ffffffff 	.word	0xffffffff
   157b0:	0000ffff 	.word	0x0000ffff
	...
   157f4:	ffffffff 	.word	0xffffffff
   157f8:	ffffffff 	.word	0xffffffff
	...
   1581c:	ffff0000 	.word	0xffff0000
   15820:	ffffffff 	.word	0xffffffff
   15824:	0000ffff 	.word	0x0000ffff
	...
   15894:	ffff0000 	.word	0xffff0000
   15898:	ffffffff 	.word	0xffffffff
   1589c:	0000ffff 	.word	0x0000ffff
	...
   158e4:	ffffffff 	.word	0xffffffff
   158e8:	ffffffff 	.word	0xffffffff
	...
   159a0:	ffff0000 	.word	0xffff0000
   159a4:	ffffffff 	.word	0xffffffff
   159a8:	0000ffff 	.word	0x0000ffff
	...
   159f4:	ffffffff 	.word	0xffffffff
   159f8:	ffffffff 	.word	0xffffffff
	...
   15a28:	ffff0000 	.word	0xffff0000
   15a2c:	ffffffff 	.word	0xffffffff
   15a30:	ffffffff 	.word	0xffffffff
	...
   15a70:	ffff0000 	.word	0xffff0000
   15a74:	ffffffff 	.word	0xffffffff
   15a78:	ffffffff 	.word	0xffffffff
	...
   15a9c:	ffff0000 	.word	0xffff0000
   15aa0:	ffffffff 	.word	0xffffffff
   15aa4:	0000ffff 	.word	0x0000ffff
	...
   15b14:	ffff0000 	.word	0xffff0000
   15b18:	ffffffff 	.word	0xffffffff
   15b1c:	0000ffff 	.word	0x0000ffff
	...
   15b64:	ffffffff 	.word	0xffffffff
   15b68:	ffffffff 	.word	0xffffffff
	...
   15c20:	ffff0000 	.word	0xffff0000
   15c24:	ffffffff 	.word	0xffffffff
   15c28:	0000ffff 	.word	0x0000ffff
	...
   15c74:	ffffffff 	.word	0xffffffff
   15c78:	ffffffff 	.word	0xffffffff
	...
   15ca8:	ffff0000 	.word	0xffff0000
   15cac:	ffffffff 	.word	0xffffffff
   15cb0:	ffffffff 	.word	0xffffffff
	...
   15cf0:	ffff0000 	.word	0xffff0000
   15cf4:	ffffffff 	.word	0xffffffff
   15cf8:	ffffffff 	.word	0xffffffff
	...
   15d1c:	ffff0000 	.word	0xffff0000
   15d20:	ffffffff 	.word	0xffffffff
   15d24:	0000ffff 	.word	0x0000ffff
	...
   15d94:	ffff0000 	.word	0xffff0000
   15d98:	ffffffff 	.word	0xffffffff
   15d9c:	0000ffff 	.word	0x0000ffff
	...
   15de4:	ffffffff 	.word	0xffffffff
   15de8:	ffffffff 	.word	0xffffffff
	...
   15ea0:	ffff0000 	.word	0xffff0000
   15ea4:	ffffffff 	.word	0xffffffff
   15ea8:	0000ffff 	.word	0x0000ffff
	...
   15ef4:	ffffffff 	.word	0xffffffff
   15ef8:	ffffffff 	.word	0xffffffff
	...
   15f28:	ffff0000 	.word	0xffff0000
   15f2c:	ffffffff 	.word	0xffffffff
   15f30:	ffffffff 	.word	0xffffffff
	...
   15f70:	ffff0000 	.word	0xffff0000
   15f74:	ffffffff 	.word	0xffffffff
   15f78:	ffffffff 	.word	0xffffffff
	...
   15f9c:	ffff0000 	.word	0xffff0000
   15fa0:	ffffffff 	.word	0xffffffff
   15fa4:	0000ffff 	.word	0x0000ffff
	...
   16014:	ffff0000 	.word	0xffff0000
   16018:	ffffffff 	.word	0xffffffff
   1601c:	0000ffff 	.word	0x0000ffff
	...
   16064:	ffffffff 	.word	0xffffffff
   16068:	ffffffff 	.word	0xffffffff
	...
   16120:	ffff0000 	.word	0xffff0000
   16124:	ffffffff 	.word	0xffffffff
   16128:	0000ffff 	.word	0x0000ffff
	...
   16174:	ffffffff 	.word	0xffffffff
   16178:	ffffffff 	.word	0xffffffff
	...
   161ac:	ffffffff 	.word	0xffffffff
   161b0:	ffffffff 	.word	0xffffffff
   161b4:	0000ffff 	.word	0x0000ffff
	...
   161f0:	ffffffff 	.word	0xffffffff
   161f4:	ffffffff 	.word	0xffffffff
   161f8:	0000ffff 	.word	0x0000ffff
	...
   1621c:	ffff0000 	.word	0xffff0000
   16220:	ffffffff 	.word	0xffffffff
   16224:	0000ffff 	.word	0x0000ffff
	...
   16294:	ffff0000 	.word	0xffff0000
   16298:	ffffffff 	.word	0xffffffff
   1629c:	0000ffff 	.word	0x0000ffff
	...
   162e4:	ffffffff 	.word	0xffffffff
   162e8:	ffffffff 	.word	0xffffffff
	...
   163a0:	ffff0000 	.word	0xffff0000
   163a4:	ffffffff 	.word	0xffffffff
   163a8:	0000ffff 	.word	0x0000ffff
	...
   163f4:	ffffffff 	.word	0xffffffff
   163f8:	ffffffff 	.word	0xffffffff
	...
   1642c:	ffffffff 	.word	0xffffffff
   16430:	ffffffff 	.word	0xffffffff
   16434:	0000ffff 	.word	0x0000ffff
	...
   16470:	ffffffff 	.word	0xffffffff
   16474:	ffffffff 	.word	0xffffffff
   16478:	0000ffff 	.word	0x0000ffff
	...
   1649c:	ffff0000 	.word	0xffff0000
   164a0:	ffffffff 	.word	0xffffffff
   164a4:	0000ffff 	.word	0x0000ffff
	...
   16514:	ffff0000 	.word	0xffff0000
   16518:	ffffffff 	.word	0xffffffff
   1651c:	0000ffff 	.word	0x0000ffff
	...
   16564:	ffffffff 	.word	0xffffffff
   16568:	ffffffff 	.word	0xffffffff
	...
   16620:	ffff0000 	.word	0xffff0000
   16624:	ffffffff 	.word	0xffffffff
   16628:	0000ffff 	.word	0x0000ffff
	...
   16674:	ffffffff 	.word	0xffffffff
   16678:	ffffffff 	.word	0xffffffff
	...
   166ac:	ffffffff 	.word	0xffffffff
   166b0:	ffffffff 	.word	0xffffffff
   166b4:	0000ffff 	.word	0x0000ffff
	...
   166f0:	ffffffff 	.word	0xffffffff
   166f4:	ffffffff 	.word	0xffffffff
   166f8:	0000ffff 	.word	0x0000ffff
	...
   1671c:	ffff0000 	.word	0xffff0000
   16720:	ffffffff 	.word	0xffffffff
   16724:	0000ffff 	.word	0x0000ffff
	...
   16794:	ffff0000 	.word	0xffff0000
   16798:	ffffffff 	.word	0xffffffff
   1679c:	0000ffff 	.word	0x0000ffff
	...
   167e4:	ffffffff 	.word	0xffffffff
   167e8:	ffffffff 	.word	0xffffffff
	...
   168a0:	ffff0000 	.word	0xffff0000
   168a4:	ffffffff 	.word	0xffffffff
   168a8:	0000ffff 	.word	0x0000ffff
	...
   168f4:	ffffffff 	.word	0xffffffff
   168f8:	ffffffff 	.word	0xffffffff
	...
   1692c:	ffff0000 	.word	0xffff0000
   16930:	ffffffff 	.word	0xffffffff
   16934:	ffffffff 	.word	0xffffffff
	...
   1696c:	ffff0000 	.word	0xffff0000
   16970:	ffffffff 	.word	0xffffffff
   16974:	ffffffff 	.word	0xffffffff
	...
   1699c:	ffff0000 	.word	0xffff0000
   169a0:	ffffffff 	.word	0xffffffff
   169a4:	0000ffff 	.word	0x0000ffff
	...
   16a14:	ffff0000 	.word	0xffff0000
   16a18:	ffffffff 	.word	0xffffffff
   16a1c:	0000ffff 	.word	0x0000ffff
	...
   16a64:	ffffffff 	.word	0xffffffff
   16a68:	ffffffff 	.word	0xffffffff
	...
   16b20:	ffff0000 	.word	0xffff0000
   16b24:	ffffffff 	.word	0xffffffff
   16b28:	0000ffff 	.word	0x0000ffff
	...
   16b74:	ffffffff 	.word	0xffffffff
   16b78:	ffffffff 	.word	0xffffffff
	...
   16bac:	ffff0000 	.word	0xffff0000
   16bb0:	ffffffff 	.word	0xffffffff
   16bb4:	ffffffff 	.word	0xffffffff
	...
   16bec:	ffff0000 	.word	0xffff0000
   16bf0:	ffffffff 	.word	0xffffffff
   16bf4:	ffffffff 	.word	0xffffffff
	...
   16c1c:	ffff0000 	.word	0xffff0000
   16c20:	ffffffff 	.word	0xffffffff
   16c24:	0000ffff 	.word	0x0000ffff
	...
   16c94:	ffff0000 	.word	0xffff0000
   16c98:	ffffffff 	.word	0xffffffff
   16c9c:	0000ffff 	.word	0x0000ffff
	...
   16ce4:	ffffffff 	.word	0xffffffff
   16ce8:	ffffffff 	.word	0xffffffff
	...
   16da0:	ffff0000 	.word	0xffff0000
   16da4:	ffffffff 	.word	0xffffffff
   16da8:	0000ffff 	.word	0x0000ffff
	...
   16df4:	ffffffff 	.word	0xffffffff
   16df8:	ffffffff 	.word	0xffffffff
	...
   16e2c:	ffff0000 	.word	0xffff0000
   16e30:	ffffffff 	.word	0xffffffff
   16e34:	ffffffff 	.word	0xffffffff
	...
   16e6c:	ffff0000 	.word	0xffff0000
   16e70:	ffffffff 	.word	0xffffffff
   16e74:	ffffffff 	.word	0xffffffff
	...
   16e9c:	ffff0000 	.word	0xffff0000
   16ea0:	ffffffff 	.word	0xffffffff
   16ea4:	0000ffff 	.word	0x0000ffff
	...
   16f14:	ffff0000 	.word	0xffff0000
   16f18:	ffffffff 	.word	0xffffffff
   16f1c:	0000ffff 	.word	0x0000ffff
	...
   16f64:	ffffffff 	.word	0xffffffff
   16f68:	ffffffff 	.word	0xffffffff
	...
   17020:	ffff0000 	.word	0xffff0000
   17024:	ffffffff 	.word	0xffffffff
   17028:	0000ffff 	.word	0x0000ffff
	...
   17074:	ffffffff 	.word	0xffffffff
   17078:	ffffffff 	.word	0xffffffff
	...
   170b0:	ffffffff 	.word	0xffffffff
   170b4:	ffffffff 	.word	0xffffffff
	...
   170ec:	ffff0000 	.word	0xffff0000
   170f0:	ffffffff 	.word	0xffffffff
   170f4:	0000ffff 	.word	0x0000ffff
	...
   1711c:	ffff0000 	.word	0xffff0000
   17120:	ffffffff 	.word	0xffffffff
   17124:	0000ffff 	.word	0x0000ffff
	...
   17194:	ffff0000 	.word	0xffff0000
   17198:	ffffffff 	.word	0xffffffff
   1719c:	0000ffff 	.word	0x0000ffff
	...
   171e4:	ffffffff 	.word	0xffffffff
   171e8:	ffffffff 	.word	0xffffffff
	...
   172a0:	ffff0000 	.word	0xffff0000
   172a4:	ffffffff 	.word	0xffffffff
   172a8:	0000ffff 	.word	0x0000ffff
	...
   172f4:	ffffffff 	.word	0xffffffff
   172f8:	ffffffff 	.word	0xffffffff
	...
   17330:	ffffffff 	.word	0xffffffff
   17334:	ffffffff 	.word	0xffffffff
   17338:	0000ffff 	.word	0x0000ffff
	...
   1736c:	ffffffff 	.word	0xffffffff
   17370:	ffffffff 	.word	0xffffffff
   17374:	0000ffff 	.word	0x0000ffff
	...
   1739c:	ffff0000 	.word	0xffff0000
   173a0:	ffffffff 	.word	0xffffffff
   173a4:	0000ffff 	.word	0x0000ffff
	...
   17414:	ffff0000 	.word	0xffff0000
   17418:	ffffffff 	.word	0xffffffff
   1741c:	0000ffff 	.word	0x0000ffff
	...
   17464:	ffffffff 	.word	0xffffffff
   17468:	ffffffff 	.word	0xffffffff
	...
   17520:	ffff0000 	.word	0xffff0000
   17524:	ffffffff 	.word	0xffffffff
   17528:	0000ffff 	.word	0x0000ffff
	...
   17574:	ffffffff 	.word	0xffffffff
   17578:	ffffffff 	.word	0xffffffff
	...
   175b0:	ffffffff 	.word	0xffffffff
   175b4:	ffffffff 	.word	0xffffffff
   175b8:	0000ffff 	.word	0x0000ffff
	...
   175ec:	ffffffff 	.word	0xffffffff
   175f0:	ffffffff 	.word	0xffffffff
   175f4:	0000ffff 	.word	0x0000ffff
	...
   1761c:	ffff0000 	.word	0xffff0000
   17620:	ffffffff 	.word	0xffffffff
   17624:	0000ffff 	.word	0x0000ffff
	...
   17694:	ffff0000 	.word	0xffff0000
   17698:	ffffffff 	.word	0xffffffff
   1769c:	0000ffff 	.word	0x0000ffff
	...
   176e4:	ffffffff 	.word	0xffffffff
   176e8:	ffffffff 	.word	0xffffffff
	...
   177a0:	ffff0000 	.word	0xffff0000
   177a4:	ffffffff 	.word	0xffffffff
   177a8:	0000ffff 	.word	0x0000ffff
	...
   177f4:	ffffffff 	.word	0xffffffff
   177f8:	ffffffff 	.word	0xffffffff
	...
   17830:	ffffffff 	.word	0xffffffff
   17834:	ffffffff 	.word	0xffffffff
   17838:	0000ffff 	.word	0x0000ffff
	...
   1786c:	ffffffff 	.word	0xffffffff
   17870:	ffffffff 	.word	0xffffffff
   17874:	0000ffff 	.word	0x0000ffff
	...
   1789c:	ffff0000 	.word	0xffff0000
   178a0:	ffffffff 	.word	0xffffffff
   178a4:	0000ffff 	.word	0x0000ffff
	...
   17914:	ffff0000 	.word	0xffff0000
   17918:	ffffffff 	.word	0xffffffff
   1791c:	0000ffff 	.word	0x0000ffff
	...
   17964:	ffffffff 	.word	0xffffffff
   17968:	ffffffff 	.word	0xffffffff
	...
   17a20:	ffff0000 	.word	0xffff0000
   17a24:	ffffffff 	.word	0xffffffff
   17a28:	0000ffff 	.word	0x0000ffff
	...
   17a74:	ffffffff 	.word	0xffffffff
   17a78:	ffffffff 	.word	0xffffffff
	...
   17ab0:	ffff0000 	.word	0xffff0000
   17ab4:	ffffffff 	.word	0xffffffff
   17ab8:	ffffffff 	.word	0xffffffff
	...
   17ae8:	ffff0000 	.word	0xffff0000
   17aec:	ffffffff 	.word	0xffffffff
   17af0:	ffffffff 	.word	0xffffffff
	...
   17b1c:	ffff0000 	.word	0xffff0000
   17b20:	ffffffff 	.word	0xffffffff
   17b24:	0000ffff 	.word	0x0000ffff
	...
   17b94:	ffff0000 	.word	0xffff0000
   17b98:	ffffffff 	.word	0xffffffff
   17b9c:	0000ffff 	.word	0x0000ffff
	...
   17be4:	ffffffff 	.word	0xffffffff
   17be8:	ffffffff 	.word	0xffffffff
	...
   17ca0:	ffff0000 	.word	0xffff0000
   17ca4:	ffffffff 	.word	0xffffffff
   17ca8:	0000ffff 	.word	0x0000ffff
	...
   17cf4:	ffffffff 	.word	0xffffffff
   17cf8:	ffffffff 	.word	0xffffffff
	...
   17d30:	ffff0000 	.word	0xffff0000
   17d34:	ffffffff 	.word	0xffffffff
   17d38:	ffffffff 	.word	0xffffffff
	...
   17d68:	ffff0000 	.word	0xffff0000
   17d6c:	ffffffff 	.word	0xffffffff
   17d70:	ffffffff 	.word	0xffffffff
	...
   17d9c:	ffff0000 	.word	0xffff0000
   17da0:	ffffffff 	.word	0xffffffff
   17da4:	0000ffff 	.word	0x0000ffff
	...
   17e14:	ffff0000 	.word	0xffff0000
   17e18:	ffffffff 	.word	0xffffffff
   17e1c:	0000ffff 	.word	0x0000ffff
	...
   17e64:	ffffffff 	.word	0xffffffff
   17e68:	ffffffff 	.word	0xffffffff
	...
   17f20:	ffff0000 	.word	0xffff0000
   17f24:	ffffffff 	.word	0xffffffff
   17f28:	0000ffff 	.word	0x0000ffff
	...
   17f74:	ffffffff 	.word	0xffffffff
   17f78:	ffffffff 	.word	0xffffffff
	...
   17fb0:	ffff0000 	.word	0xffff0000
   17fb4:	ffffffff 	.word	0xffffffff
   17fb8:	ffffffff 	.word	0xffffffff
	...
   17fe8:	ffff0000 	.word	0xffff0000
   17fec:	ffffffff 	.word	0xffffffff
   17ff0:	ffffffff 	.word	0xffffffff
	...
   1801c:	ffff0000 	.word	0xffff0000
   18020:	ffffffff 	.word	0xffffffff
   18024:	0000ffff 	.word	0x0000ffff
	...
   18094:	ffff0000 	.word	0xffff0000
   18098:	ffffffff 	.word	0xffffffff
   1809c:	0000ffff 	.word	0x0000ffff
	...
   180e4:	ffffffff 	.word	0xffffffff
   180e8:	ffffffff 	.word	0xffffffff
	...
   181a0:	ffff0000 	.word	0xffff0000
   181a4:	ffffffff 	.word	0xffffffff
   181a8:	0000ffff 	.word	0x0000ffff
	...
   181f4:	ffffffff 	.word	0xffffffff
   181f8:	ffffffff 	.word	0xffffffff
	...
   18234:	ffffffff 	.word	0xffffffff
   18238:	ffffffff 	.word	0xffffffff
   1823c:	0000ffff 	.word	0x0000ffff
	...
   18268:	ffffffff 	.word	0xffffffff
   1826c:	ffffffff 	.word	0xffffffff
   18270:	0000ffff 	.word	0x0000ffff
	...
   1829c:	ffff0000 	.word	0xffff0000
   182a0:	ffffffff 	.word	0xffffffff
   182a4:	0000ffff 	.word	0x0000ffff
	...
   18314:	ffff0000 	.word	0xffff0000
   18318:	ffffffff 	.word	0xffffffff
   1831c:	0000ffff 	.word	0x0000ffff
	...
   18364:	ffffffff 	.word	0xffffffff
   18368:	ffffffff 	.word	0xffffffff
	...
   18420:	ffff0000 	.word	0xffff0000
   18424:	ffffffff 	.word	0xffffffff
   18428:	0000ffff 	.word	0x0000ffff
	...
   18474:	ffffffff 	.word	0xffffffff
   18478:	ffffffff 	.word	0xffffffff
	...
   184b4:	ffffffff 	.word	0xffffffff
   184b8:	ffffffff 	.word	0xffffffff
   184bc:	0000ffff 	.word	0x0000ffff
	...
   184e8:	ffffffff 	.word	0xffffffff
   184ec:	ffffffff 	.word	0xffffffff
   184f0:	0000ffff 	.word	0x0000ffff
	...
   1851c:	ffff0000 	.word	0xffff0000
   18520:	ffffffff 	.word	0xffffffff
   18524:	0000ffff 	.word	0x0000ffff
	...
   18594:	ffff0000 	.word	0xffff0000
   18598:	ffffffff 	.word	0xffffffff
   1859c:	0000ffff 	.word	0x0000ffff
	...
   185e4:	ffffffff 	.word	0xffffffff
   185e8:	ffffffff 	.word	0xffffffff
	...
   186a0:	ffff0000 	.word	0xffff0000
   186a4:	ffffffff 	.word	0xffffffff
   186a8:	0000ffff 	.word	0x0000ffff
	...
   186f4:	ffffffff 	.word	0xffffffff
   186f8:	ffffffff 	.word	0xffffffff
	...
   18734:	ffffffff 	.word	0xffffffff
   18738:	ffffffff 	.word	0xffffffff
   1873c:	0000ffff 	.word	0x0000ffff
	...
   18768:	ffffffff 	.word	0xffffffff
   1876c:	ffffffff 	.word	0xffffffff
   18770:	0000ffff 	.word	0x0000ffff
	...
   1879c:	ffff0000 	.word	0xffff0000
   187a0:	ffffffff 	.word	0xffffffff
   187a4:	0000ffff 	.word	0x0000ffff
	...
   18814:	ffff0000 	.word	0xffff0000
   18818:	ffffffff 	.word	0xffffffff
   1881c:	0000ffff 	.word	0x0000ffff
	...
   18864:	ffffffff 	.word	0xffffffff
   18868:	ffffffff 	.word	0xffffffff
	...
   18920:	ffff0000 	.word	0xffff0000
   18924:	ffffffff 	.word	0xffffffff
   18928:	0000ffff 	.word	0x0000ffff
	...
   18974:	ffffffff 	.word	0xffffffff
   18978:	ffffffff 	.word	0xffffffff
	...
   189b4:	ffff0000 	.word	0xffff0000
   189b8:	ffffffff 	.word	0xffffffff
   189bc:	ffffffff 	.word	0xffffffff
	...
   189e8:	ffffffff 	.word	0xffffffff
   189ec:	ffffffff 	.word	0xffffffff
	...
   18a1c:	ffff0000 	.word	0xffff0000
   18a20:	ffffffff 	.word	0xffffffff
   18a24:	0000ffff 	.word	0x0000ffff
	...
   18a94:	ffff0000 	.word	0xffff0000
   18a98:	ffffffff 	.word	0xffffffff
   18a9c:	0000ffff 	.word	0x0000ffff
	...
   18ae4:	ffffffff 	.word	0xffffffff
   18ae8:	ffffffff 	.word	0xffffffff
	...
   18ba0:	ffff0000 	.word	0xffff0000
   18ba4:	ffffffff 	.word	0xffffffff
   18ba8:	0000ffff 	.word	0x0000ffff
	...
   18bf4:	ffffffff 	.word	0xffffffff
   18bf8:	ffffffff 	.word	0xffffffff
	...
   18c34:	ffff0000 	.word	0xffff0000
   18c38:	ffffffff 	.word	0xffffffff
   18c3c:	ffffffff 	.word	0xffffffff
	...
   18c64:	ffff0000 	.word	0xffff0000
   18c68:	ffffffff 	.word	0xffffffff
   18c6c:	ffffffff 	.word	0xffffffff
	...
   18c9c:	ffff0000 	.word	0xffff0000
   18ca0:	ffffffff 	.word	0xffffffff
   18ca4:	0000ffff 	.word	0x0000ffff
	...
   18d14:	ffff0000 	.word	0xffff0000
   18d18:	ffffffff 	.word	0xffffffff
   18d1c:	0000ffff 	.word	0x0000ffff
	...
   18d64:	ffffffff 	.word	0xffffffff
   18d68:	ffffffff 	.word	0xffffffff
	...
   18e20:	ffff0000 	.word	0xffff0000
   18e24:	ffffffff 	.word	0xffffffff
   18e28:	0000ffff 	.word	0x0000ffff
	...
   18e74:	ffffffff 	.word	0xffffffff
   18e78:	ffffffff 	.word	0xffffffff
	...
   18eb4:	ffff0000 	.word	0xffff0000
   18eb8:	ffffffff 	.word	0xffffffff
   18ebc:	ffffffff 	.word	0xffffffff
	...
   18ee4:	ffff0000 	.word	0xffff0000
   18ee8:	ffffffff 	.word	0xffffffff
   18eec:	ffffffff 	.word	0xffffffff
	...
   18f1c:	ffff0000 	.word	0xffff0000
   18f20:	ffffffff 	.word	0xffffffff
   18f24:	0000ffff 	.word	0x0000ffff
	...
   18f94:	ffff0000 	.word	0xffff0000
   18f98:	ffffffff 	.word	0xffffffff
   18f9c:	ffffffff 	.word	0xffffffff
   18fa0:	ffffffff 	.word	0xffffffff
   18fa4:	ffffffff 	.word	0xffffffff
   18fa8:	ffffffff 	.word	0xffffffff
   18fac:	ffffffff 	.word	0xffffffff
   18fb0:	ffffffff 	.word	0xffffffff
   18fb4:	ffffffff 	.word	0xffffffff
   18fb8:	ffffffff 	.word	0xffffffff
   18fbc:	ffffffff 	.word	0xffffffff
   18fc0:	ffffffff 	.word	0xffffffff
   18fc4:	ffffffff 	.word	0xffffffff
   18fc8:	ffffffff 	.word	0xffffffff
   18fcc:	ffffffff 	.word	0xffffffff
   18fd0:	ffffffff 	.word	0xffffffff
   18fd4:	ffffffff 	.word	0xffffffff
   18fd8:	ffffffff 	.word	0xffffffff
   18fdc:	ffffffff 	.word	0xffffffff
   18fe0:	ffffffff 	.word	0xffffffff
   18fe4:	ffffffff 	.word	0xffffffff
   18fe8:	ffffffff 	.word	0xffffffff
	...
   190a0:	ffff0000 	.word	0xffff0000
   190a4:	ffffffff 	.word	0xffffffff
   190a8:	0000ffff 	.word	0x0000ffff
	...
   190f4:	ffffffff 	.word	0xffffffff
   190f8:	ffffffff 	.word	0xffffffff
	...
   19138:	ffffffff 	.word	0xffffffff
   1913c:	ffffffff 	.word	0xffffffff
   19140:	0000ffff 	.word	0x0000ffff
	...
   19164:	ffff0000 	.word	0xffff0000
   19168:	ffffffff 	.word	0xffffffff
   1916c:	ffffffff 	.word	0xffffffff
	...
   1919c:	ffff0000 	.word	0xffff0000
   191a0:	ffffffff 	.word	0xffffffff
   191a4:	0000ffff 	.word	0x0000ffff
	...
   19214:	ffff0000 	.word	0xffff0000
   19218:	ffffffff 	.word	0xffffffff
   1921c:	ffffffff 	.word	0xffffffff
   19220:	ffffffff 	.word	0xffffffff
   19224:	ffffffff 	.word	0xffffffff
   19228:	ffffffff 	.word	0xffffffff
   1922c:	ffffffff 	.word	0xffffffff
   19230:	ffffffff 	.word	0xffffffff
   19234:	ffffffff 	.word	0xffffffff
   19238:	ffffffff 	.word	0xffffffff
   1923c:	ffffffff 	.word	0xffffffff
   19240:	ffffffff 	.word	0xffffffff
   19244:	ffffffff 	.word	0xffffffff
   19248:	ffffffff 	.word	0xffffffff
   1924c:	ffffffff 	.word	0xffffffff
   19250:	ffffffff 	.word	0xffffffff
   19254:	ffffffff 	.word	0xffffffff
   19258:	ffffffff 	.word	0xffffffff
   1925c:	ffffffff 	.word	0xffffffff
   19260:	ffffffff 	.word	0xffffffff
   19264:	ffffffff 	.word	0xffffffff
   19268:	ffffffff 	.word	0xffffffff
	...
   19320:	ffff0000 	.word	0xffff0000
   19324:	ffffffff 	.word	0xffffffff
   19328:	0000ffff 	.word	0x0000ffff
	...
   19374:	ffffffff 	.word	0xffffffff
   19378:	ffffffff 	.word	0xffffffff
	...
   193b8:	ffffffff 	.word	0xffffffff
   193bc:	ffffffff 	.word	0xffffffff
   193c0:	0000ffff 	.word	0x0000ffff
	...
   193e4:	ffffffff 	.word	0xffffffff
   193e8:	ffffffff 	.word	0xffffffff
   193ec:	0000ffff 	.word	0x0000ffff
	...
   1941c:	ffff0000 	.word	0xffff0000
   19420:	ffffffff 	.word	0xffffffff
   19424:	0000ffff 	.word	0x0000ffff
	...
   19494:	ffff0000 	.word	0xffff0000
   19498:	ffffffff 	.word	0xffffffff
   1949c:	ffffffff 	.word	0xffffffff
   194a0:	ffffffff 	.word	0xffffffff
   194a4:	ffffffff 	.word	0xffffffff
   194a8:	ffffffff 	.word	0xffffffff
   194ac:	ffffffff 	.word	0xffffffff
   194b0:	ffffffff 	.word	0xffffffff
   194b4:	ffffffff 	.word	0xffffffff
   194b8:	ffffffff 	.word	0xffffffff
   194bc:	ffffffff 	.word	0xffffffff
   194c0:	ffffffff 	.word	0xffffffff
   194c4:	ffffffff 	.word	0xffffffff
   194c8:	ffffffff 	.word	0xffffffff
   194cc:	ffffffff 	.word	0xffffffff
   194d0:	ffffffff 	.word	0xffffffff
   194d4:	ffffffff 	.word	0xffffffff
   194d8:	ffffffff 	.word	0xffffffff
   194dc:	ffffffff 	.word	0xffffffff
   194e0:	ffffffff 	.word	0xffffffff
   194e4:	ffffffff 	.word	0xffffffff
   194e8:	ffffffff 	.word	0xffffffff
	...
   195a0:	ffff0000 	.word	0xffff0000
   195a4:	ffffffff 	.word	0xffffffff
   195a8:	0000ffff 	.word	0x0000ffff
	...
   195f4:	ffffffff 	.word	0xffffffff
   195f8:	ffffffff 	.word	0xffffffff
	...
   19638:	ffffffff 	.word	0xffffffff
   1963c:	ffffffff 	.word	0xffffffff
   19640:	0000ffff 	.word	0x0000ffff
	...
   19664:	ffffffff 	.word	0xffffffff
   19668:	ffffffff 	.word	0xffffffff
   1966c:	0000ffff 	.word	0x0000ffff
	...
   1969c:	ffff0000 	.word	0xffff0000
   196a0:	ffffffff 	.word	0xffffffff
   196a4:	0000ffff 	.word	0x0000ffff
	...
   19714:	ffff0000 	.word	0xffff0000
   19718:	ffffffff 	.word	0xffffffff
   1971c:	ffffffff 	.word	0xffffffff
   19720:	ffffffff 	.word	0xffffffff
   19724:	ffffffff 	.word	0xffffffff
   19728:	ffffffff 	.word	0xffffffff
   1972c:	ffffffff 	.word	0xffffffff
   19730:	ffffffff 	.word	0xffffffff
   19734:	ffffffff 	.word	0xffffffff
   19738:	ffffffff 	.word	0xffffffff
   1973c:	ffffffff 	.word	0xffffffff
   19740:	ffffffff 	.word	0xffffffff
   19744:	ffffffff 	.word	0xffffffff
   19748:	ffffffff 	.word	0xffffffff
   1974c:	ffffffff 	.word	0xffffffff
   19750:	ffffffff 	.word	0xffffffff
   19754:	ffffffff 	.word	0xffffffff
   19758:	ffffffff 	.word	0xffffffff
   1975c:	ffffffff 	.word	0xffffffff
   19760:	ffffffff 	.word	0xffffffff
   19764:	ffffffff 	.word	0xffffffff
   19768:	ffffffff 	.word	0xffffffff
	...
   19820:	ffff0000 	.word	0xffff0000
   19824:	ffffffff 	.word	0xffffffff
   19828:	0000ffff 	.word	0x0000ffff
	...
   19874:	ffffffff 	.word	0xffffffff
   19878:	ffffffff 	.word	0xffffffff
	...
   198b8:	ffff0000 	.word	0xffff0000
   198bc:	ffffffff 	.word	0xffffffff
   198c0:	ffffffff 	.word	0xffffffff
	...
   198e4:	ffffffff 	.word	0xffffffff
   198e8:	ffffffff 	.word	0xffffffff
   198ec:	0000ffff 	.word	0x0000ffff
	...
   1991c:	ffff0000 	.word	0xffff0000
   19920:	ffffffff 	.word	0xffffffff
   19924:	0000ffff 	.word	0x0000ffff
	...
   19994:	ffff0000 	.word	0xffff0000
   19998:	ffffffff 	.word	0xffffffff
   1999c:	0000ffff 	.word	0x0000ffff
	...
   199cc:	ffff0000 	.word	0xffff0000
   199d0:	ffffffff 	.word	0xffffffff
   199d4:	ffffffff 	.word	0xffffffff
	...
   19aa0:	ffff0000 	.word	0xffff0000
   19aa4:	ffffffff 	.word	0xffffffff
   19aa8:	0000ffff 	.word	0x0000ffff
	...
   19af4:	ffffffff 	.word	0xffffffff
   19af8:	ffffffff 	.word	0xffffffff
	...
   19b38:	ffff0000 	.word	0xffff0000
   19b3c:	ffffffff 	.word	0xffffffff
   19b40:	ffffffff 	.word	0xffffffff
	...
   19b60:	ffff0000 	.word	0xffff0000
   19b64:	ffffffff 	.word	0xffffffff
   19b68:	ffffffff 	.word	0xffffffff
	...
   19b9c:	ffff0000 	.word	0xffff0000
   19ba0:	ffffffff 	.word	0xffffffff
   19ba4:	ffffffff 	.word	0xffffffff
   19ba8:	ffffffff 	.word	0xffffffff
   19bac:	ffffffff 	.word	0xffffffff
   19bb0:	ffffffff 	.word	0xffffffff
   19bb4:	ffffffff 	.word	0xffffffff
   19bb8:	ffffffff 	.word	0xffffffff
   19bbc:	ffffffff 	.word	0xffffffff
   19bc0:	ffffffff 	.word	0xffffffff
   19bc4:	ffffffff 	.word	0xffffffff
   19bc8:	ffffffff 	.word	0xffffffff
   19bcc:	ffffffff 	.word	0xffffffff
   19bd0:	ffffffff 	.word	0xffffffff
   19bd4:	ffffffff 	.word	0xffffffff
   19bd8:	ffffffff 	.word	0xffffffff
   19bdc:	ffffffff 	.word	0xffffffff
   19be0:	ffffffff 	.word	0xffffffff
   19be4:	0000ffff 	.word	0x0000ffff
	...
   19c14:	ffff0000 	.word	0xffff0000
   19c18:	ffffffff 	.word	0xffffffff
   19c1c:	0000ffff 	.word	0x0000ffff
	...
   19c50:	ffffffff 	.word	0xffffffff
   19c54:	ffffffff 	.word	0xffffffff
	...
   19d20:	ffff0000 	.word	0xffff0000
   19d24:	ffffffff 	.word	0xffffffff
   19d28:	0000ffff 	.word	0x0000ffff
	...
   19d74:	ffffffff 	.word	0xffffffff
   19d78:	ffffffff 	.word	0xffffffff
	...
   19db8:	ffff0000 	.word	0xffff0000
   19dbc:	ffffffff 	.word	0xffffffff
   19dc0:	ffffffff 	.word	0xffffffff
	...
   19de0:	ffff0000 	.word	0xffff0000
   19de4:	ffffffff 	.word	0xffffffff
   19de8:	ffffffff 	.word	0xffffffff
	...
   19e1c:	ffff0000 	.word	0xffff0000
   19e20:	ffffffff 	.word	0xffffffff
   19e24:	ffffffff 	.word	0xffffffff
   19e28:	ffffffff 	.word	0xffffffff
   19e2c:	ffffffff 	.word	0xffffffff
   19e30:	ffffffff 	.word	0xffffffff
   19e34:	ffffffff 	.word	0xffffffff
   19e38:	ffffffff 	.word	0xffffffff
   19e3c:	ffffffff 	.word	0xffffffff
   19e40:	ffffffff 	.word	0xffffffff
   19e44:	ffffffff 	.word	0xffffffff
   19e48:	ffffffff 	.word	0xffffffff
   19e4c:	ffffffff 	.word	0xffffffff
   19e50:	ffffffff 	.word	0xffffffff
   19e54:	ffffffff 	.word	0xffffffff
   19e58:	ffffffff 	.word	0xffffffff
   19e5c:	ffffffff 	.word	0xffffffff
   19e60:	ffffffff 	.word	0xffffffff
   19e64:	0000ffff 	.word	0x0000ffff
	...
   19e94:	ffff0000 	.word	0xffff0000
   19e98:	ffffffff 	.word	0xffffffff
   19e9c:	0000ffff 	.word	0x0000ffff
	...
   19ed0:	ffffffff 	.word	0xffffffff
   19ed4:	ffffffff 	.word	0xffffffff
   19ed8:	0000ffff 	.word	0x0000ffff
	...
   19fa0:	ffff0000 	.word	0xffff0000
   19fa4:	ffffffff 	.word	0xffffffff
   19fa8:	0000ffff 	.word	0x0000ffff
	...
   19ff4:	ffffffff 	.word	0xffffffff
   19ff8:	ffffffff 	.word	0xffffffff
	...
   1a03c:	ffffffff 	.word	0xffffffff
   1a040:	ffffffff 	.word	0xffffffff
   1a044:	0000ffff 	.word	0x0000ffff
	...
   1a060:	ffff0000 	.word	0xffff0000
   1a064:	ffffffff 	.word	0xffffffff
   1a068:	ffffffff 	.word	0xffffffff
	...
   1a09c:	ffff0000 	.word	0xffff0000
   1a0a0:	ffffffff 	.word	0xffffffff
   1a0a4:	ffffffff 	.word	0xffffffff
   1a0a8:	ffffffff 	.word	0xffffffff
   1a0ac:	ffffffff 	.word	0xffffffff
   1a0b0:	ffffffff 	.word	0xffffffff
   1a0b4:	ffffffff 	.word	0xffffffff
   1a0b8:	ffffffff 	.word	0xffffffff
   1a0bc:	ffffffff 	.word	0xffffffff
   1a0c0:	ffffffff 	.word	0xffffffff
   1a0c4:	ffffffff 	.word	0xffffffff
   1a0c8:	ffffffff 	.word	0xffffffff
   1a0cc:	ffffffff 	.word	0xffffffff
   1a0d0:	ffffffff 	.word	0xffffffff
   1a0d4:	ffffffff 	.word	0xffffffff
   1a0d8:	ffffffff 	.word	0xffffffff
   1a0dc:	ffffffff 	.word	0xffffffff
   1a0e0:	ffffffff 	.word	0xffffffff
   1a0e4:	0000ffff 	.word	0x0000ffff
	...
   1a114:	ffff0000 	.word	0xffff0000
   1a118:	ffffffff 	.word	0xffffffff
   1a11c:	0000ffff 	.word	0x0000ffff
	...
   1a150:	ffffffff 	.word	0xffffffff
   1a154:	ffffffff 	.word	0xffffffff
   1a158:	0000ffff 	.word	0x0000ffff
	...
   1a220:	ffff0000 	.word	0xffff0000
   1a224:	ffffffff 	.word	0xffffffff
   1a228:	0000ffff 	.word	0x0000ffff
	...
   1a274:	ffffffff 	.word	0xffffffff
   1a278:	ffffffff 	.word	0xffffffff
	...
   1a2bc:	ffffffff 	.word	0xffffffff
   1a2c0:	ffffffff 	.word	0xffffffff
   1a2c4:	0000ffff 	.word	0x0000ffff
	...
   1a2e0:	ffffffff 	.word	0xffffffff
   1a2e4:	ffffffff 	.word	0xffffffff
   1a2e8:	0000ffff 	.word	0x0000ffff
	...
   1a31c:	ffff0000 	.word	0xffff0000
   1a320:	ffffffff 	.word	0xffffffff
   1a324:	ffffffff 	.word	0xffffffff
   1a328:	ffffffff 	.word	0xffffffff
   1a32c:	ffffffff 	.word	0xffffffff
   1a330:	ffffffff 	.word	0xffffffff
   1a334:	ffffffff 	.word	0xffffffff
   1a338:	ffffffff 	.word	0xffffffff
   1a33c:	ffffffff 	.word	0xffffffff
   1a340:	ffffffff 	.word	0xffffffff
   1a344:	ffffffff 	.word	0xffffffff
   1a348:	ffffffff 	.word	0xffffffff
   1a34c:	ffffffff 	.word	0xffffffff
   1a350:	ffffffff 	.word	0xffffffff
   1a354:	ffffffff 	.word	0xffffffff
   1a358:	ffffffff 	.word	0xffffffff
   1a35c:	ffffffff 	.word	0xffffffff
   1a360:	ffffffff 	.word	0xffffffff
   1a364:	0000ffff 	.word	0x0000ffff
	...
   1a394:	ffff0000 	.word	0xffff0000
   1a398:	ffffffff 	.word	0xffffffff
   1a39c:	0000ffff 	.word	0x0000ffff
	...
   1a3d0:	ffffffff 	.word	0xffffffff
   1a3d4:	ffffffff 	.word	0xffffffff
   1a3d8:	0000ffff 	.word	0x0000ffff
	...
   1a4a0:	ffff0000 	.word	0xffff0000
   1a4a4:	ffffffff 	.word	0xffffffff
   1a4a8:	0000ffff 	.word	0x0000ffff
	...
   1a4f4:	ffffffff 	.word	0xffffffff
   1a4f8:	ffffffff 	.word	0xffffffff
	...
   1a53c:	ffffffff 	.word	0xffffffff
   1a540:	ffffffff 	.word	0xffffffff
   1a544:	0000ffff 	.word	0x0000ffff
	...
   1a560:	ffffffff 	.word	0xffffffff
   1a564:	ffffffff 	.word	0xffffffff
   1a568:	0000ffff 	.word	0x0000ffff
	...
   1a59c:	ffff0000 	.word	0xffff0000
   1a5a0:	ffffffff 	.word	0xffffffff
   1a5a4:	0000ffff 	.word	0x0000ffff
	...
   1a614:	ffff0000 	.word	0xffff0000
   1a618:	ffffffff 	.word	0xffffffff
   1a61c:	0000ffff 	.word	0x0000ffff
	...
   1a650:	ffff0000 	.word	0xffff0000
   1a654:	ffffffff 	.word	0xffffffff
   1a658:	0000ffff 	.word	0x0000ffff
	...
   1a720:	ffff0000 	.word	0xffff0000
   1a724:	ffffffff 	.word	0xffffffff
   1a728:	0000ffff 	.word	0x0000ffff
	...
   1a774:	ffffffff 	.word	0xffffffff
   1a778:	ffffffff 	.word	0xffffffff
	...
   1a7bc:	ffff0000 	.word	0xffff0000
   1a7c0:	ffffffff 	.word	0xffffffff
   1a7c4:	ffffffff 	.word	0xffffffff
	...
   1a7e0:	ffffffff 	.word	0xffffffff
   1a7e4:	ffffffff 	.word	0xffffffff
   1a7e8:	0000ffff 	.word	0x0000ffff
	...
   1a81c:	ffff0000 	.word	0xffff0000
   1a820:	ffffffff 	.word	0xffffffff
   1a824:	0000ffff 	.word	0x0000ffff
	...
   1a894:	ffff0000 	.word	0xffff0000
   1a898:	ffffffff 	.word	0xffffffff
   1a89c:	0000ffff 	.word	0x0000ffff
	...
   1a8d0:	ffff0000 	.word	0xffff0000
   1a8d4:	ffffffff 	.word	0xffffffff
   1a8d8:	ffffffff 	.word	0xffffffff
	...
   1a9a0:	ffff0000 	.word	0xffff0000
   1a9a4:	ffffffff 	.word	0xffffffff
   1a9a8:	0000ffff 	.word	0x0000ffff
	...
   1a9f4:	ffffffff 	.word	0xffffffff
   1a9f8:	ffffffff 	.word	0xffffffff
	...
   1aa3c:	ffff0000 	.word	0xffff0000
   1aa40:	ffffffff 	.word	0xffffffff
   1aa44:	ffffffff 	.word	0xffffffff
	...
   1aa60:	ffffffff 	.word	0xffffffff
   1aa64:	ffffffff 	.word	0xffffffff
	...
   1aa9c:	ffff0000 	.word	0xffff0000
   1aaa0:	ffffffff 	.word	0xffffffff
   1aaa4:	0000ffff 	.word	0x0000ffff
	...
   1ab14:	ffff0000 	.word	0xffff0000
   1ab18:	ffffffff 	.word	0xffffffff
   1ab1c:	0000ffff 	.word	0x0000ffff
	...
   1ab50:	ffff0000 	.word	0xffff0000
   1ab54:	ffffffff 	.word	0xffffffff
   1ab58:	ffffffff 	.word	0xffffffff
	...
   1ac20:	ffff0000 	.word	0xffff0000
   1ac24:	ffffffff 	.word	0xffffffff
   1ac28:	0000ffff 	.word	0x0000ffff
	...
   1ac74:	ffffffff 	.word	0xffffffff
   1ac78:	ffffffff 	.word	0xffffffff
	...
   1acbc:	ffff0000 	.word	0xffff0000
   1acc0:	ffffffff 	.word	0xffffffff
   1acc4:	ffffffff 	.word	0xffffffff
	...
   1acdc:	ffff0000 	.word	0xffff0000
   1ace0:	ffffffff 	.word	0xffffffff
   1ace4:	ffffffff 	.word	0xffffffff
	...
   1ad1c:	ffff0000 	.word	0xffff0000
   1ad20:	ffffffff 	.word	0xffffffff
   1ad24:	0000ffff 	.word	0x0000ffff
	...
   1ad94:	ffff0000 	.word	0xffff0000
   1ad98:	ffffffff 	.word	0xffffffff
   1ad9c:	0000ffff 	.word	0x0000ffff
	...
   1add0:	ffff0000 	.word	0xffff0000
   1add4:	ffffffff 	.word	0xffffffff
   1add8:	ffffffff 	.word	0xffffffff
	...
   1aea0:	ffff0000 	.word	0xffff0000
   1aea4:	ffffffff 	.word	0xffffffff
   1aea8:	0000ffff 	.word	0x0000ffff
	...
   1aef4:	ffffffff 	.word	0xffffffff
   1aef8:	ffffffff 	.word	0xffffffff
	...
   1af40:	ffffffff 	.word	0xffffffff
   1af44:	ffffffff 	.word	0xffffffff
   1af48:	0000ffff 	.word	0x0000ffff
	...
   1af5c:	ffff0000 	.word	0xffff0000
   1af60:	ffffffff 	.word	0xffffffff
   1af64:	ffffffff 	.word	0xffffffff
	...
   1af9c:	ffff0000 	.word	0xffff0000
   1afa0:	ffffffff 	.word	0xffffffff
   1afa4:	0000ffff 	.word	0x0000ffff
	...
   1b014:	ffff0000 	.word	0xffff0000
   1b018:	ffffffff 	.word	0xffffffff
   1b01c:	0000ffff 	.word	0x0000ffff
	...
   1b054:	ffffffff 	.word	0xffffffff
   1b058:	ffffffff 	.word	0xffffffff
   1b05c:	0000ffff 	.word	0x0000ffff
	...
   1b120:	ffff0000 	.word	0xffff0000
   1b124:	ffffffff 	.word	0xffffffff
   1b128:	0000ffff 	.word	0x0000ffff
	...
   1b174:	ffffffff 	.word	0xffffffff
   1b178:	ffffffff 	.word	0xffffffff
	...
   1b1c0:	ffffffff 	.word	0xffffffff
   1b1c4:	ffffffff 	.word	0xffffffff
   1b1c8:	0000ffff 	.word	0x0000ffff
	...
   1b1dc:	ffff0000 	.word	0xffff0000
   1b1e0:	ffffffff 	.word	0xffffffff
   1b1e4:	ffffffff 	.word	0xffffffff
	...
   1b21c:	ffff0000 	.word	0xffff0000
   1b220:	ffffffff 	.word	0xffffffff
   1b224:	0000ffff 	.word	0x0000ffff
	...
   1b294:	ffff0000 	.word	0xffff0000
   1b298:	ffffffff 	.word	0xffffffff
   1b29c:	0000ffff 	.word	0x0000ffff
	...
   1b2d4:	ffffffff 	.word	0xffffffff
   1b2d8:	ffffffff 	.word	0xffffffff
   1b2dc:	0000ffff 	.word	0x0000ffff
	...
   1b3a0:	ffff0000 	.word	0xffff0000
   1b3a4:	ffffffff 	.word	0xffffffff
   1b3a8:	0000ffff 	.word	0x0000ffff
	...
   1b3f4:	ffffffff 	.word	0xffffffff
   1b3f8:	ffffffff 	.word	0xffffffff
	...
   1b440:	ffffffff 	.word	0xffffffff
   1b444:	ffffffff 	.word	0xffffffff
   1b448:	0000ffff 	.word	0x0000ffff
	...
   1b45c:	ffffffff 	.word	0xffffffff
   1b460:	ffffffff 	.word	0xffffffff
   1b464:	0000ffff 	.word	0x0000ffff
	...
   1b49c:	ffff0000 	.word	0xffff0000
   1b4a0:	ffffffff 	.word	0xffffffff
   1b4a4:	0000ffff 	.word	0x0000ffff
	...
   1b514:	ffff0000 	.word	0xffff0000
   1b518:	ffffffff 	.word	0xffffffff
   1b51c:	0000ffff 	.word	0x0000ffff
	...
   1b554:	ffffffff 	.word	0xffffffff
   1b558:	ffffffff 	.word	0xffffffff
   1b55c:	0000ffff 	.word	0x0000ffff
	...
   1b620:	ffff0000 	.word	0xffff0000
   1b624:	ffffffff 	.word	0xffffffff
   1b628:	0000ffff 	.word	0x0000ffff
	...
   1b674:	ffffffff 	.word	0xffffffff
   1b678:	ffffffff 	.word	0xffffffff
	...
   1b6c0:	ffff0000 	.word	0xffff0000
   1b6c4:	ffffffff 	.word	0xffffffff
   1b6c8:	ffffffff 	.word	0xffffffff
	...
   1b6dc:	ffffffff 	.word	0xffffffff
   1b6e0:	ffffffff 	.word	0xffffffff
   1b6e4:	0000ffff 	.word	0x0000ffff
	...
   1b71c:	ffff0000 	.word	0xffff0000
   1b720:	ffffffff 	.word	0xffffffff
   1b724:	0000ffff 	.word	0x0000ffff
	...
   1b794:	ffff0000 	.word	0xffff0000
   1b798:	ffffffff 	.word	0xffffffff
   1b79c:	0000ffff 	.word	0x0000ffff
	...
   1b7d4:	ffff0000 	.word	0xffff0000
   1b7d8:	ffffffff 	.word	0xffffffff
   1b7dc:	0000ffff 	.word	0x0000ffff
	...
   1b8a0:	ffff0000 	.word	0xffff0000
   1b8a4:	ffffffff 	.word	0xffffffff
   1b8a8:	0000ffff 	.word	0x0000ffff
	...
   1b8f4:	ffffffff 	.word	0xffffffff
   1b8f8:	ffffffff 	.word	0xffffffff
	...
   1b940:	ffff0000 	.word	0xffff0000
   1b944:	ffffffff 	.word	0xffffffff
   1b948:	ffffffff 	.word	0xffffffff
	...
   1b95c:	ffffffff 	.word	0xffffffff
   1b960:	ffffffff 	.word	0xffffffff
   1b964:	0000ffff 	.word	0x0000ffff
	...
   1b99c:	ffff0000 	.word	0xffff0000
   1b9a0:	ffffffff 	.word	0xffffffff
   1b9a4:	0000ffff 	.word	0x0000ffff
	...
   1ba14:	ffff0000 	.word	0xffff0000
   1ba18:	ffffffff 	.word	0xffffffff
   1ba1c:	0000ffff 	.word	0x0000ffff
	...
   1ba54:	ffff0000 	.word	0xffff0000
   1ba58:	ffffffff 	.word	0xffffffff
   1ba5c:	ffffffff 	.word	0xffffffff
	...
   1bb20:	ffff0000 	.word	0xffff0000
   1bb24:	ffffffff 	.word	0xffffffff
   1bb28:	0000ffff 	.word	0x0000ffff
	...
   1bb74:	ffffffff 	.word	0xffffffff
   1bb78:	ffffffff 	.word	0xffffffff
	...
   1bbc0:	ffff0000 	.word	0xffff0000
   1bbc4:	ffffffff 	.word	0xffffffff
   1bbc8:	ffffffff 	.word	0xffffffff
	...
   1bbd8:	ffff0000 	.word	0xffff0000
   1bbdc:	ffffffff 	.word	0xffffffff
   1bbe0:	ffffffff 	.word	0xffffffff
	...
   1bc1c:	ffff0000 	.word	0xffff0000
   1bc20:	ffffffff 	.word	0xffffffff
   1bc24:	0000ffff 	.word	0x0000ffff
	...
   1bc94:	ffff0000 	.word	0xffff0000
   1bc98:	ffffffff 	.word	0xffffffff
   1bc9c:	0000ffff 	.word	0x0000ffff
	...
   1bcd4:	ffff0000 	.word	0xffff0000
   1bcd8:	ffffffff 	.word	0xffffffff
   1bcdc:	ffffffff 	.word	0xffffffff
	...
   1bda0:	ffff0000 	.word	0xffff0000
   1bda4:	ffffffff 	.word	0xffffffff
   1bda8:	0000ffff 	.word	0x0000ffff
	...
   1bdf4:	ffffffff 	.word	0xffffffff
   1bdf8:	ffffffff 	.word	0xffffffff
	...
   1be44:	ffffffff 	.word	0xffffffff
   1be48:	ffffffff 	.word	0xffffffff
   1be4c:	0000ffff 	.word	0x0000ffff
	...
   1be58:	ffff0000 	.word	0xffff0000
   1be5c:	ffffffff 	.word	0xffffffff
   1be60:	ffffffff 	.word	0xffffffff
	...
   1be9c:	ffff0000 	.word	0xffff0000
   1bea0:	ffffffff 	.word	0xffffffff
   1bea4:	0000ffff 	.word	0x0000ffff
	...
   1bf14:	ffff0000 	.word	0xffff0000
   1bf18:	ffffffff 	.word	0xffffffff
   1bf1c:	0000ffff 	.word	0x0000ffff
	...
   1bf54:	ffff0000 	.word	0xffff0000
   1bf58:	ffffffff 	.word	0xffffffff
   1bf5c:	ffffffff 	.word	0xffffffff
	...
   1c020:	ffff0000 	.word	0xffff0000
   1c024:	ffffffff 	.word	0xffffffff
   1c028:	0000ffff 	.word	0x0000ffff
	...
   1c074:	ffffffff 	.word	0xffffffff
   1c078:	ffffffff 	.word	0xffffffff
	...
   1c0c4:	ffffffff 	.word	0xffffffff
   1c0c8:	ffffffff 	.word	0xffffffff
   1c0cc:	0000ffff 	.word	0x0000ffff
	...
   1c0d8:	ffff0000 	.word	0xffff0000
   1c0dc:	ffffffff 	.word	0xffffffff
   1c0e0:	ffffffff 	.word	0xffffffff
	...
   1c11c:	ffff0000 	.word	0xffff0000
   1c120:	ffffffff 	.word	0xffffffff
   1c124:	0000ffff 	.word	0x0000ffff
	...
   1c194:	ffff0000 	.word	0xffff0000
   1c198:	ffffffff 	.word	0xffffffff
   1c19c:	0000ffff 	.word	0x0000ffff
	...
   1c1d8:	ffffffff 	.word	0xffffffff
   1c1dc:	ffffffff 	.word	0xffffffff
   1c1e0:	0000ffff 	.word	0x0000ffff
	...
   1c2a0:	ffff0000 	.word	0xffff0000
   1c2a4:	ffffffff 	.word	0xffffffff
   1c2a8:	0000ffff 	.word	0x0000ffff
	...
   1c2f4:	ffffffff 	.word	0xffffffff
   1c2f8:	ffffffff 	.word	0xffffffff
	...
   1c344:	ffffffff 	.word	0xffffffff
   1c348:	ffffffff 	.word	0xffffffff
   1c34c:	0000ffff 	.word	0x0000ffff
	...
   1c358:	ffff0000 	.word	0xffff0000
   1c35c:	ffffffff 	.word	0xffffffff
   1c360:	0000ffff 	.word	0x0000ffff
	...
   1c39c:	ffff0000 	.word	0xffff0000
   1c3a0:	ffffffff 	.word	0xffffffff
   1c3a4:	0000ffff 	.word	0x0000ffff
	...
   1c414:	ffff0000 	.word	0xffff0000
   1c418:	ffffffff 	.word	0xffffffff
   1c41c:	0000ffff 	.word	0x0000ffff
	...
   1c458:	ffffffff 	.word	0xffffffff
   1c45c:	ffffffff 	.word	0xffffffff
   1c460:	0000ffff 	.word	0x0000ffff
	...
   1c520:	ffff0000 	.word	0xffff0000
   1c524:	ffffffff 	.word	0xffffffff
   1c528:	0000ffff 	.word	0x0000ffff
	...
   1c574:	ffffffff 	.word	0xffffffff
   1c578:	ffffffff 	.word	0xffffffff
	...
   1c5c4:	ffff0000 	.word	0xffff0000
   1c5c8:	ffffffff 	.word	0xffffffff
   1c5cc:	0000ffff 	.word	0x0000ffff
	...
   1c5d8:	ffffffff 	.word	0xffffffff
   1c5dc:	ffffffff 	.word	0xffffffff
   1c5e0:	0000ffff 	.word	0x0000ffff
	...
   1c61c:	ffff0000 	.word	0xffff0000
   1c620:	ffffffff 	.word	0xffffffff
   1c624:	0000ffff 	.word	0x0000ffff
	...
   1c694:	ffff0000 	.word	0xffff0000
   1c698:	ffffffff 	.word	0xffffffff
   1c69c:	0000ffff 	.word	0x0000ffff
	...
   1c6d8:	ffffffff 	.word	0xffffffff
   1c6dc:	ffffffff 	.word	0xffffffff
   1c6e0:	0000ffff 	.word	0x0000ffff
	...
   1c7a0:	ffff0000 	.word	0xffff0000
   1c7a4:	ffffffff 	.word	0xffffffff
   1c7a8:	0000ffff 	.word	0x0000ffff
	...
   1c7f4:	ffffffff 	.word	0xffffffff
   1c7f8:	ffffffff 	.word	0xffffffff
	...
   1c844:	ffff0000 	.word	0xffff0000
   1c848:	ffffffff 	.word	0xffffffff
   1c84c:	ffffffff 	.word	0xffffffff
	...
   1c858:	ffffffff 	.word	0xffffffff
   1c85c:	ffffffff 	.word	0xffffffff
   1c860:	0000ffff 	.word	0x0000ffff
	...
   1c89c:	ffff0000 	.word	0xffff0000
   1c8a0:	ffffffff 	.word	0xffffffff
   1c8a4:	0000ffff 	.word	0x0000ffff
	...
   1c914:	ffff0000 	.word	0xffff0000
   1c918:	ffffffff 	.word	0xffffffff
   1c91c:	0000ffff 	.word	0x0000ffff
	...
   1c958:	ffff0000 	.word	0xffff0000
   1c95c:	ffffffff 	.word	0xffffffff
   1c960:	0000ffff 	.word	0x0000ffff
	...
   1ca20:	ffff0000 	.word	0xffff0000
   1ca24:	ffffffff 	.word	0xffffffff
   1ca28:	0000ffff 	.word	0x0000ffff
	...
   1ca74:	ffffffff 	.word	0xffffffff
   1ca78:	ffffffff 	.word	0xffffffff
	...
   1cac4:	ffff0000 	.word	0xffff0000
   1cac8:	ffffffff 	.word	0xffffffff
   1cacc:	ffffffff 	.word	0xffffffff
	...
   1cad8:	ffffffff 	.word	0xffffffff
   1cadc:	ffffffff 	.word	0xffffffff
   1cae0:	0000ffff 	.word	0x0000ffff
	...
   1cb1c:	ffff0000 	.word	0xffff0000
   1cb20:	ffffffff 	.word	0xffffffff
   1cb24:	0000ffff 	.word	0x0000ffff
	...
   1cb94:	ffff0000 	.word	0xffff0000
   1cb98:	ffffffff 	.word	0xffffffff
   1cb9c:	0000ffff 	.word	0x0000ffff
	...
   1cbd8:	ffff0000 	.word	0xffff0000
   1cbdc:	ffffffff 	.word	0xffffffff
   1cbe0:	ffffffff 	.word	0xffffffff
	...
   1cca0:	ffff0000 	.word	0xffff0000
   1cca4:	ffffffff 	.word	0xffffffff
   1cca8:	0000ffff 	.word	0x0000ffff
	...
   1ccf4:	ffffffff 	.word	0xffffffff
   1ccf8:	ffffffff 	.word	0xffffffff
	...
   1cd44:	ffff0000 	.word	0xffff0000
   1cd48:	ffffffff 	.word	0xffffffff
   1cd4c:	ffffffff 	.word	0xffffffff
   1cd50:	00000000 	.word	0x00000000
   1cd54:	ffff0000 	.word	0xffff0000
   1cd58:	ffffffff 	.word	0xffffffff
   1cd5c:	ffffffff 	.word	0xffffffff
	...
   1cd9c:	ffff0000 	.word	0xffff0000
   1cda0:	ffffffff 	.word	0xffffffff
   1cda4:	0000ffff 	.word	0x0000ffff
	...
   1ce14:	ffff0000 	.word	0xffff0000
   1ce18:	ffffffff 	.word	0xffffffff
   1ce1c:	0000ffff 	.word	0x0000ffff
	...
   1ce58:	ffff0000 	.word	0xffff0000
   1ce5c:	ffffffff 	.word	0xffffffff
   1ce60:	ffffffff 	.word	0xffffffff
	...
   1cf20:	ffff0000 	.word	0xffff0000
   1cf24:	ffffffff 	.word	0xffffffff
   1cf28:	0000ffff 	.word	0x0000ffff
	...
   1cf74:	ffffffff 	.word	0xffffffff
   1cf78:	ffffffff 	.word	0xffffffff
	...
   1cfc8:	ffffffff 	.word	0xffffffff
   1cfcc:	ffffffff 	.word	0xffffffff
   1cfd0:	0000ffff 	.word	0x0000ffff
   1cfd4:	ffff0000 	.word	0xffff0000
   1cfd8:	ffffffff 	.word	0xffffffff
   1cfdc:	ffffffff 	.word	0xffffffff
	...
   1d01c:	ffff0000 	.word	0xffff0000
   1d020:	ffffffff 	.word	0xffffffff
   1d024:	0000ffff 	.word	0x0000ffff
	...
   1d094:	ffff0000 	.word	0xffff0000
   1d098:	ffffffff 	.word	0xffffffff
   1d09c:	0000ffff 	.word	0x0000ffff
	...
   1d0d8:	ffff0000 	.word	0xffff0000
   1d0dc:	ffffffff 	.word	0xffffffff
   1d0e0:	ffffffff 	.word	0xffffffff
	...
   1d1a0:	ffff0000 	.word	0xffff0000
   1d1a4:	ffffffff 	.word	0xffffffff
   1d1a8:	0000ffff 	.word	0x0000ffff
	...
   1d1f4:	ffffffff 	.word	0xffffffff
   1d1f8:	ffffffff 	.word	0xffffffff
	...
   1d248:	ffffffff 	.word	0xffffffff
   1d24c:	ffffffff 	.word	0xffffffff
   1d250:	0000ffff 	.word	0x0000ffff
   1d254:	ffff0000 	.word	0xffff0000
   1d258:	ffffffff 	.word	0xffffffff
   1d25c:	ffffffff 	.word	0xffffffff
	...
   1d29c:	ffff0000 	.word	0xffff0000
   1d2a0:	ffffffff 	.word	0xffffffff
   1d2a4:	0000ffff 	.word	0x0000ffff
	...
   1d314:	ffff0000 	.word	0xffff0000
   1d318:	ffffffff 	.word	0xffffffff
   1d31c:	0000ffff 	.word	0x0000ffff
	...
   1d35c:	ffffffff 	.word	0xffffffff
   1d360:	ffffffff 	.word	0xffffffff
	...
   1d420:	ffff0000 	.word	0xffff0000
   1d424:	ffffffff 	.word	0xffffffff
   1d428:	0000ffff 	.word	0x0000ffff
	...
   1d474:	ffffffff 	.word	0xffffffff
   1d478:	ffffffff 	.word	0xffffffff
	...
   1d4c8:	ffffffff 	.word	0xffffffff
   1d4cc:	ffffffff 	.word	0xffffffff
   1d4d0:	0000ffff 	.word	0x0000ffff
   1d4d4:	ffffffff 	.word	0xffffffff
   1d4d8:	ffffffff 	.word	0xffffffff
   1d4dc:	0000ffff 	.word	0x0000ffff
	...
   1d51c:	ffff0000 	.word	0xffff0000
   1d520:	ffffffff 	.word	0xffffffff
   1d524:	0000ffff 	.word	0x0000ffff
	...
   1d594:	ffff0000 	.word	0xffff0000
   1d598:	ffffffff 	.word	0xffffffff
   1d59c:	0000ffff 	.word	0x0000ffff
	...
   1d5dc:	ffffffff 	.word	0xffffffff
   1d5e0:	ffffffff 	.word	0xffffffff
   1d5e4:	0000ffff 	.word	0x0000ffff
	...
   1d6a0:	ffff0000 	.word	0xffff0000
   1d6a4:	ffffffff 	.word	0xffffffff
   1d6a8:	0000ffff 	.word	0x0000ffff
	...
   1d6f4:	ffffffff 	.word	0xffffffff
   1d6f8:	ffffffff 	.word	0xffffffff
	...
   1d748:	ffff0000 	.word	0xffff0000
   1d74c:	ffffffff 	.word	0xffffffff
   1d750:	ffffffff 	.word	0xffffffff
   1d754:	ffffffff 	.word	0xffffffff
   1d758:	ffffffff 	.word	0xffffffff
   1d75c:	0000ffff 	.word	0x0000ffff
	...
   1d79c:	ffff0000 	.word	0xffff0000
   1d7a0:	ffffffff 	.word	0xffffffff
   1d7a4:	0000ffff 	.word	0x0000ffff
	...
   1d814:	ffff0000 	.word	0xffff0000
   1d818:	ffffffff 	.word	0xffffffff
   1d81c:	0000ffff 	.word	0x0000ffff
	...
   1d85c:	ffffffff 	.word	0xffffffff
   1d860:	ffffffff 	.word	0xffffffff
   1d864:	0000ffff 	.word	0x0000ffff
	...
   1d920:	ffff0000 	.word	0xffff0000
   1d924:	ffffffff 	.word	0xffffffff
   1d928:	0000ffff 	.word	0x0000ffff
	...
   1d974:	ffffffff 	.word	0xffffffff
   1d978:	ffffffff 	.word	0xffffffff
	...
   1d9c8:	ffff0000 	.word	0xffff0000
   1d9cc:	ffffffff 	.word	0xffffffff
   1d9d0:	ffffffff 	.word	0xffffffff
   1d9d4:	ffffffff 	.word	0xffffffff
   1d9d8:	ffffffff 	.word	0xffffffff
   1d9dc:	0000ffff 	.word	0x0000ffff
	...
   1da1c:	ffff0000 	.word	0xffff0000
   1da20:	ffffffff 	.word	0xffffffff
   1da24:	0000ffff 	.word	0x0000ffff
	...
   1da94:	ffff0000 	.word	0xffff0000
   1da98:	ffffffff 	.word	0xffffffff
   1da9c:	0000ffff 	.word	0x0000ffff
	...
   1dadc:	ffffffff 	.word	0xffffffff
   1dae0:	ffffffff 	.word	0xffffffff
   1dae4:	0000ffff 	.word	0x0000ffff
	...
   1dba0:	ffff0000 	.word	0xffff0000
   1dba4:	ffffffff 	.word	0xffffffff
   1dba8:	0000ffff 	.word	0x0000ffff
	...
   1dbf4:	ffffffff 	.word	0xffffffff
   1dbf8:	ffffffff 	.word	0xffffffff
	...
   1dc48:	ffff0000 	.word	0xffff0000
   1dc4c:	ffffffff 	.word	0xffffffff
   1dc50:	ffffffff 	.word	0xffffffff
   1dc54:	ffffffff 	.word	0xffffffff
   1dc58:	ffffffff 	.word	0xffffffff
	...
   1dc9c:	ffff0000 	.word	0xffff0000
   1dca0:	ffffffff 	.word	0xffffffff
   1dca4:	0000ffff 	.word	0x0000ffff
	...
   1dd14:	ffff0000 	.word	0xffff0000
   1dd18:	ffffffff 	.word	0xffffffff
   1dd1c:	0000ffff 	.word	0x0000ffff
	...
   1dd5c:	ffff0000 	.word	0xffff0000
   1dd60:	ffffffff 	.word	0xffffffff
   1dd64:	ffffffff 	.word	0xffffffff
	...
   1de20:	ffff0000 	.word	0xffff0000
   1de24:	ffffffff 	.word	0xffffffff
   1de28:	0000ffff 	.word	0x0000ffff
	...
   1de74:	ffffffff 	.word	0xffffffff
   1de78:	ffffffff 	.word	0xffffffff
	...
   1decc:	ffffffff 	.word	0xffffffff
   1ded0:	ffffffff 	.word	0xffffffff
   1ded4:	ffffffff 	.word	0xffffffff
   1ded8:	ffffffff 	.word	0xffffffff
	...
   1df1c:	ffff0000 	.word	0xffff0000
   1df20:	ffffffff 	.word	0xffffffff
   1df24:	0000ffff 	.word	0x0000ffff
	...
   1df94:	ffff0000 	.word	0xffff0000
   1df98:	ffffffff 	.word	0xffffffff
   1df9c:	0000ffff 	.word	0x0000ffff
	...
   1dfdc:	ffff0000 	.word	0xffff0000
   1dfe0:	ffffffff 	.word	0xffffffff
   1dfe4:	ffffffff 	.word	0xffffffff
	...
   1e0a0:	ffff0000 	.word	0xffff0000
   1e0a4:	ffffffff 	.word	0xffffffff
   1e0a8:	0000ffff 	.word	0x0000ffff
	...
   1e0f4:	ffffffff 	.word	0xffffffff
   1e0f8:	ffffffff 	.word	0xffffffff
	...
   1e14c:	ffffffff 	.word	0xffffffff
   1e150:	ffffffff 	.word	0xffffffff
   1e154:	ffffffff 	.word	0xffffffff
   1e158:	ffffffff 	.word	0xffffffff
	...
   1e19c:	ffff0000 	.word	0xffff0000
   1e1a0:	ffffffff 	.word	0xffffffff
   1e1a4:	0000ffff 	.word	0x0000ffff
	...
   1e214:	ffff0000 	.word	0xffff0000
   1e218:	ffffffff 	.word	0xffffffff
   1e21c:	0000ffff 	.word	0x0000ffff
	...
   1e25c:	ffff0000 	.word	0xffff0000
   1e260:	ffffffff 	.word	0xffffffff
   1e264:	ffffffff 	.word	0xffffffff
	...
   1e320:	ffff0000 	.word	0xffff0000
   1e324:	ffffffff 	.word	0xffffffff
   1e328:	0000ffff 	.word	0x0000ffff
	...
   1e374:	ffffffff 	.word	0xffffffff
   1e378:	ffffffff 	.word	0xffffffff
	...
   1e3cc:	ffffffff 	.word	0xffffffff
   1e3d0:	ffffffff 	.word	0xffffffff
   1e3d4:	ffffffff 	.word	0xffffffff
   1e3d8:	ffffffff 	.word	0xffffffff
	...
   1e41c:	ffff0000 	.word	0xffff0000
   1e420:	ffffffff 	.word	0xffffffff
   1e424:	0000ffff 	.word	0x0000ffff
	...
   1e494:	ffff0000 	.word	0xffff0000
   1e498:	ffffffff 	.word	0xffffffff
   1e49c:	0000ffff 	.word	0x0000ffff
	...
   1e4e0:	ffffffff 	.word	0xffffffff
   1e4e4:	ffffffff 	.word	0xffffffff
	...
   1e5a0:	ffff0000 	.word	0xffff0000
   1e5a4:	ffffffff 	.word	0xffffffff
   1e5a8:	0000ffff 	.word	0x0000ffff
	...
   1e5f4:	ffffffff 	.word	0xffffffff
   1e5f8:	ffffffff 	.word	0xffffffff
	...
   1e64c:	ffff0000 	.word	0xffff0000
   1e650:	ffffffff 	.word	0xffffffff
   1e654:	ffffffff 	.word	0xffffffff
   1e658:	0000ffff 	.word	0x0000ffff
	...
   1e69c:	ffff0000 	.word	0xffff0000
   1e6a0:	ffffffff 	.word	0xffffffff
   1e6a4:	0000ffff 	.word	0x0000ffff
	...
   1e714:	ffff0000 	.word	0xffff0000
   1e718:	ffffffff 	.word	0xffffffff
   1e71c:	0000ffff 	.word	0x0000ffff
	...
   1e760:	ffffffff 	.word	0xffffffff
   1e764:	ffffffff 	.word	0xffffffff
   1e768:	0000ffff 	.word	0x0000ffff
	...
   1e820:	ffff0000 	.word	0xffff0000
   1e824:	ffffffff 	.word	0xffffffff
   1e828:	0000ffff 	.word	0x0000ffff
	...
   1e874:	ffffffff 	.word	0xffffffff
   1e878:	ffffffff 	.word	0xffffffff
	...
   1e8cc:	ffff0000 	.word	0xffff0000
   1e8d0:	ffffffff 	.word	0xffffffff
   1e8d4:	ffffffff 	.word	0xffffffff
   1e8d8:	0000ffff 	.word	0x0000ffff
	...
   1e91c:	ffff0000 	.word	0xffff0000
   1e920:	ffffffff 	.word	0xffffffff
   1e924:	0000ffff 	.word	0x0000ffff
	...
   1e994:	ffff0000 	.word	0xffff0000
   1e998:	ffffffff 	.word	0xffffffff
   1e99c:	0000ffff 	.word	0x0000ffff
	...
   1e9e0:	ffffffff 	.word	0xffffffff
   1e9e4:	ffffffff 	.word	0xffffffff
   1e9e8:	0000ffff 	.word	0x0000ffff
	...
   1eaa0:	ffff0000 	.word	0xffff0000
   1eaa4:	ffffffff 	.word	0xffffffff
   1eaa8:	ffffffff 	.word	0xffffffff
   1eaac:	ffffffff 	.word	0xffffffff
   1eab0:	ffffffff 	.word	0xffffffff
   1eab4:	ffffffff 	.word	0xffffffff
   1eab8:	ffffffff 	.word	0xffffffff
   1eabc:	ffffffff 	.word	0xffffffff
   1eac0:	ffffffff 	.word	0xffffffff
   1eac4:	ffffffff 	.word	0xffffffff
   1eac8:	ffffffff 	.word	0xffffffff
   1eacc:	ffffffff 	.word	0xffffffff
   1ead0:	ffffffff 	.word	0xffffffff
   1ead4:	ffffffff 	.word	0xffffffff
   1ead8:	ffffffff 	.word	0xffffffff
   1eadc:	ffffffff 	.word	0xffffffff
   1eae0:	ffffffff 	.word	0xffffffff
   1eae4:	ffffffff 	.word	0xffffffff
   1eae8:	ffffffff 	.word	0xffffffff
   1eaec:	ffffffff 	.word	0xffffffff
   1eaf0:	ffffffff 	.word	0xffffffff
   1eaf4:	ffffffff 	.word	0xffffffff
   1eaf8:	ffffffff 	.word	0xffffffff
	...
   1eb4c:	ffff0000 	.word	0xffff0000
   1eb50:	ffffffff 	.word	0xffffffff
   1eb54:	ffffffff 	.word	0xffffffff
   1eb58:	0000ffff 	.word	0x0000ffff
	...
   1eb9c:	ffff0000 	.word	0xffff0000
   1eba0:	ffffffff 	.word	0xffffffff
   1eba4:	0000ffff 	.word	0x0000ffff
	...
   1ec14:	ffff0000 	.word	0xffff0000
   1ec18:	ffffffff 	.word	0xffffffff
   1ec1c:	0000ffff 	.word	0x0000ffff
	...
   1ec60:	ffffffff 	.word	0xffffffff
   1ec64:	ffffffff 	.word	0xffffffff
   1ec68:	0000ffff 	.word	0x0000ffff
	...
   1ed20:	ffff0000 	.word	0xffff0000
   1ed24:	ffffffff 	.word	0xffffffff
   1ed28:	ffffffff 	.word	0xffffffff
   1ed2c:	ffffffff 	.word	0xffffffff
   1ed30:	ffffffff 	.word	0xffffffff
   1ed34:	ffffffff 	.word	0xffffffff
   1ed38:	ffffffff 	.word	0xffffffff
   1ed3c:	ffffffff 	.word	0xffffffff
   1ed40:	ffffffff 	.word	0xffffffff
   1ed44:	ffffffff 	.word	0xffffffff
   1ed48:	ffffffff 	.word	0xffffffff
   1ed4c:	ffffffff 	.word	0xffffffff
   1ed50:	ffffffff 	.word	0xffffffff
   1ed54:	ffffffff 	.word	0xffffffff
   1ed58:	ffffffff 	.word	0xffffffff
   1ed5c:	ffffffff 	.word	0xffffffff
   1ed60:	ffffffff 	.word	0xffffffff
   1ed64:	ffffffff 	.word	0xffffffff
   1ed68:	ffffffff 	.word	0xffffffff
   1ed6c:	ffffffff 	.word	0xffffffff
   1ed70:	ffffffff 	.word	0xffffffff
   1ed74:	ffffffff 	.word	0xffffffff
   1ed78:	ffffffff 	.word	0xffffffff
	...
   1edd0:	ffffffff 	.word	0xffffffff
   1edd4:	ffffffff 	.word	0xffffffff
	...
   1ee1c:	ffff0000 	.word	0xffff0000
   1ee20:	ffffffff 	.word	0xffffffff
   1ee24:	0000ffff 	.word	0x0000ffff
	...
   1ee94:	ffff0000 	.word	0xffff0000
   1ee98:	ffffffff 	.word	0xffffffff
   1ee9c:	0000ffff 	.word	0x0000ffff
	...
   1eee0:	ffff0000 	.word	0xffff0000
   1eee4:	ffffffff 	.word	0xffffffff
   1eee8:	0000ffff 	.word	0x0000ffff
	...
   1efa0:	ffff0000 	.word	0xffff0000
   1efa4:	ffffffff 	.word	0xffffffff
   1efa8:	ffffffff 	.word	0xffffffff
   1efac:	ffffffff 	.word	0xffffffff
   1efb0:	ffffffff 	.word	0xffffffff
   1efb4:	ffffffff 	.word	0xffffffff
   1efb8:	ffffffff 	.word	0xffffffff
   1efbc:	ffffffff 	.word	0xffffffff
   1efc0:	ffffffff 	.word	0xffffffff
   1efc4:	ffffffff 	.word	0xffffffff
   1efc8:	ffffffff 	.word	0xffffffff
   1efcc:	ffffffff 	.word	0xffffffff
   1efd0:	ffffffff 	.word	0xffffffff
   1efd4:	ffffffff 	.word	0xffffffff
   1efd8:	ffffffff 	.word	0xffffffff
   1efdc:	ffffffff 	.word	0xffffffff
   1efe0:	ffffffff 	.word	0xffffffff
   1efe4:	ffffffff 	.word	0xffffffff
   1efe8:	ffffffff 	.word	0xffffffff
   1efec:	ffffffff 	.word	0xffffffff
   1eff0:	ffffffff 	.word	0xffffffff
   1eff4:	ffffffff 	.word	0xffffffff
   1eff8:	ffffffff 	.word	0xffffffff
	...
   1f050:	ffffffff 	.word	0xffffffff
   1f054:	ffffffff 	.word	0xffffffff
	...
   1f09c:	ffff0000 	.word	0xffff0000
   1f0a0:	ffffffff 	.word	0xffffffff
   1f0a4:	ffffffff 	.word	0xffffffff
   1f0a8:	ffffffff 	.word	0xffffffff
   1f0ac:	ffffffff 	.word	0xffffffff
   1f0b0:	ffffffff 	.word	0xffffffff
   1f0b4:	ffffffff 	.word	0xffffffff
   1f0b8:	ffffffff 	.word	0xffffffff
   1f0bc:	ffffffff 	.word	0xffffffff
   1f0c0:	ffffffff 	.word	0xffffffff
   1f0c4:	ffffffff 	.word	0xffffffff
   1f0c8:	ffffffff 	.word	0xffffffff
   1f0cc:	ffffffff 	.word	0xffffffff
   1f0d0:	ffffffff 	.word	0xffffffff
   1f0d4:	ffffffff 	.word	0xffffffff
   1f0d8:	ffffffff 	.word	0xffffffff
   1f0dc:	ffffffff 	.word	0xffffffff
   1f0e0:	ffffffff 	.word	0xffffffff
   1f0e4:	ffffffff 	.word	0xffffffff
   1f0e8:	0000ffff 	.word	0x0000ffff
	...
   1f114:	ffff0000 	.word	0xffff0000
   1f118:	ffffffff 	.word	0xffffffff
   1f11c:	0000ffff 	.word	0x0000ffff
	...
   1f160:	ffff0000 	.word	0xffff0000
   1f164:	ffffffff 	.word	0xffffffff
   1f168:	ffffffff 	.word	0xffffffff
	...
   1f220:	ffff0000 	.word	0xffff0000
   1f224:	ffffffff 	.word	0xffffffff
   1f228:	ffffffff 	.word	0xffffffff
   1f22c:	ffffffff 	.word	0xffffffff
   1f230:	ffffffff 	.word	0xffffffff
   1f234:	ffffffff 	.word	0xffffffff
   1f238:	ffffffff 	.word	0xffffffff
   1f23c:	ffffffff 	.word	0xffffffff
   1f240:	ffffffff 	.word	0xffffffff
   1f244:	ffffffff 	.word	0xffffffff
   1f248:	ffffffff 	.word	0xffffffff
   1f24c:	ffffffff 	.word	0xffffffff
   1f250:	ffffffff 	.word	0xffffffff
   1f254:	ffffffff 	.word	0xffffffff
   1f258:	ffffffff 	.word	0xffffffff
   1f25c:	ffffffff 	.word	0xffffffff
   1f260:	ffffffff 	.word	0xffffffff
   1f264:	ffffffff 	.word	0xffffffff
   1f268:	ffffffff 	.word	0xffffffff
   1f26c:	ffffffff 	.word	0xffffffff
   1f270:	ffffffff 	.word	0xffffffff
   1f274:	ffffffff 	.word	0xffffffff
   1f278:	ffffffff 	.word	0xffffffff
	...
   1f31c:	ffff0000 	.word	0xffff0000
   1f320:	ffffffff 	.word	0xffffffff
   1f324:	ffffffff 	.word	0xffffffff
   1f328:	ffffffff 	.word	0xffffffff
   1f32c:	ffffffff 	.word	0xffffffff
   1f330:	ffffffff 	.word	0xffffffff
   1f334:	ffffffff 	.word	0xffffffff
   1f338:	ffffffff 	.word	0xffffffff
   1f33c:	ffffffff 	.word	0xffffffff
   1f340:	ffffffff 	.word	0xffffffff
   1f344:	ffffffff 	.word	0xffffffff
   1f348:	ffffffff 	.word	0xffffffff
   1f34c:	ffffffff 	.word	0xffffffff
   1f350:	ffffffff 	.word	0xffffffff
   1f354:	ffffffff 	.word	0xffffffff
   1f358:	ffffffff 	.word	0xffffffff
   1f35c:	ffffffff 	.word	0xffffffff
   1f360:	ffffffff 	.word	0xffffffff
   1f364:	ffffffff 	.word	0xffffffff
   1f368:	0000ffff 	.word	0x0000ffff
	...
   1f394:	ffff0000 	.word	0xffff0000
   1f398:	ffffffff 	.word	0xffffffff
   1f39c:	0000ffff 	.word	0x0000ffff
	...
   1f3e0:	ffff0000 	.word	0xffff0000
   1f3e4:	ffffffff 	.word	0xffffffff
   1f3e8:	ffffffff 	.word	0xffffffff
	...
   1f59c:	ffff0000 	.word	0xffff0000
   1f5a0:	ffffffff 	.word	0xffffffff
   1f5a4:	ffffffff 	.word	0xffffffff
   1f5a8:	ffffffff 	.word	0xffffffff
   1f5ac:	ffffffff 	.word	0xffffffff
   1f5b0:	ffffffff 	.word	0xffffffff
   1f5b4:	ffffffff 	.word	0xffffffff
   1f5b8:	ffffffff 	.word	0xffffffff
   1f5bc:	ffffffff 	.word	0xffffffff
   1f5c0:	ffffffff 	.word	0xffffffff
   1f5c4:	ffffffff 	.word	0xffffffff
   1f5c8:	ffffffff 	.word	0xffffffff
   1f5cc:	ffffffff 	.word	0xffffffff
   1f5d0:	ffffffff 	.word	0xffffffff
   1f5d4:	ffffffff 	.word	0xffffffff
   1f5d8:	ffffffff 	.word	0xffffffff
   1f5dc:	ffffffff 	.word	0xffffffff
   1f5e0:	ffffffff 	.word	0xffffffff
   1f5e4:	ffffffff 	.word	0xffffffff
   1f5e8:	0000ffff 	.word	0x0000ffff
	...
   1f614:	ffff0000 	.word	0xffff0000
   1f618:	ffffffff 	.word	0xffffffff
   1f61c:	0000ffff 	.word	0x0000ffff
	...
   1f660:	ffff0000 	.word	0xffff0000
   1f664:	ffffffff 	.word	0xffffffff
   1f668:	ffffffff 	.word	0xffffffff
	...
   1f81c:	ffff0000 	.word	0xffff0000
   1f820:	ffffffff 	.word	0xffffffff
   1f824:	ffffffff 	.word	0xffffffff
   1f828:	ffffffff 	.word	0xffffffff
   1f82c:	ffffffff 	.word	0xffffffff
   1f830:	ffffffff 	.word	0xffffffff
   1f834:	ffffffff 	.word	0xffffffff
   1f838:	ffffffff 	.word	0xffffffff
   1f83c:	ffffffff 	.word	0xffffffff
   1f840:	ffffffff 	.word	0xffffffff
   1f844:	ffffffff 	.word	0xffffffff
   1f848:	ffffffff 	.word	0xffffffff
   1f84c:	ffffffff 	.word	0xffffffff
   1f850:	ffffffff 	.word	0xffffffff
   1f854:	ffffffff 	.word	0xffffffff
   1f858:	ffffffff 	.word	0xffffffff
   1f85c:	ffffffff 	.word	0xffffffff
   1f860:	ffffffff 	.word	0xffffffff
   1f864:	ffffffff 	.word	0xffffffff
   1f868:	0000ffff 	.word	0x0000ffff
	...
   1f894:	ffff0000 	.word	0xffff0000
   1f898:	ffffffff 	.word	0xffffffff
   1f89c:	0000ffff 	.word	0x0000ffff
	...
   1f8e4:	ffffffff 	.word	0xffffffff
   1f8e8:	ffffffff 	.word	0xffffffff
	...
   1fb64:	ffffffff 	.word	0xffffffff
   1fb68:	ffffffff 	.word	0xffffffff
	...

0002624c <atexit>:
   2624c:	e1a01000 	mov	r1, r0
   26250:	e3a00000 	mov	r0, #0
   26254:	e92d4008 	push	{r3, lr}
   26258:	e1a02000 	mov	r2, r0
   2625c:	e1a03000 	mov	r3, r0
   26260:	eb00002c 	bl	26318 <__register_exitproc>
   26264:	e8bd4008 	pop	{r3, lr}
   26268:	e12fff1e 	bx	lr

0002626c <exit>:
   2626c:	e92d4008 	push	{r3, lr}
   26270:	e3a01000 	mov	r1, #0
   26274:	e1a04000 	mov	r4, r0
   26278:	eb000063 	bl	2640c <__call_exitprocs>
   2627c:	e59f3018 	ldr	r3, [pc, #24]	; 2629c <exit+0x30>
   26280:	e5930000 	ldr	r0, [r3]
   26284:	e590303c 	ldr	r3, [r0, #60]	; 0x3c
   26288:	e3530000 	cmp	r3, #0
   2628c:	11a0e00f 	movne	lr, pc
   26290:	112fff13 	bxne	r3
   26294:	e1a00004 	mov	r0, r4
   26298:	eb0000e7 	bl	2663c <_exit>
   2629c:	000266e4 	.word	0x000266e4

000262a0 <srand>:
   262a0:	e59f3010 	ldr	r3, [pc, #16]	; 262b8 <srand+0x18>
   262a4:	e5933000 	ldr	r3, [r3]
   262a8:	e3a02000 	mov	r2, #0
   262ac:	e58300a8 	str	r0, [r3, #168]	; 0xa8
   262b0:	e58320ac 	str	r2, [r3, #172]	; 0xac
   262b4:	e12fff1e 	bx	lr
   262b8:	00026788 	.word	0x00026788

000262bc <rand>:
   262bc:	e52d4004 	push	{r4}		; (str r4, [sp, #-4]!)
   262c0:	e59f3044 	ldr	r3, [pc, #68]	; 2630c <rand+0x50>
   262c4:	e593c000 	ldr	r12, [r3]
   262c8:	e59f4040 	ldr	r4, [pc, #64]	; 26310 <rand+0x54>
   262cc:	e59c20a8 	ldr	r2, [r12, #168]	; 0xa8
   262d0:	e0040492 	mul	r4, r2, r4
   262d4:	e59c10ac 	ldr	r1, [r12, #172]	; 0xac
   262d8:	e59f3034 	ldr	r3, [pc, #52]	; 26314 <rand+0x58>
   262dc:	e0244193 	mla	r4, r3, r1, r4
   262e0:	e0810392 	umull	r0, r1, r2, r3
   262e4:	e3a02001 	mov	r2, #1
   262e8:	e0922000 	adds	r2, r2, r0
   262ec:	e0841001 	add	r1, r4, r1
   262f0:	e3a03000 	mov	r3, #0
   262f4:	e0a33001 	adc	r3, r3, r1
   262f8:	e58c20a8 	str	r2, [r12, #168]	; 0xa8
   262fc:	e58c30ac 	str	r3, [r12, #172]	; 0xac
   26300:	e3c30102 	bic	r0, r3, #-2147483648	; 0x80000000
   26304:	e8bd0010 	ldmfd	sp!, {r4}
   26308:	e12fff1e 	bx	lr
   2630c:	00026788 	.word	0x00026788
   26310:	5851f42d 	.word	0x5851f42d
   26314:	4c957f2d 	.word	0x4c957f2d

00026318 <__register_exitproc>:
   26318:	e59fc0e4 	ldr	r12, [pc, #228]	; 26404 <__register_exitproc+0xec>
   2631c:	e92d41f0 	push	{r4, r5, r6, r7, r8, lr}
   26320:	e59c4000 	ldr	r4, [r12]
   26324:	e594c148 	ldr	r12, [r4, #328]	; 0x148
   26328:	e35c0000 	cmp	r12, #0
   2632c:	0284cf53 	addeq	r12, r4, #332	; 0x14c
   26330:	e59c5004 	ldr	r5, [r12, #4]
   26334:	0584c148 	streq	r12, [r4, #328]	; 0x148
   26338:	e355001f 	cmp	r5, #31
   2633c:	e24dd010 	sub	sp, sp, #16
   26340:	e1a06000 	mov	r6, r0
   26344:	da000015 	ble	263a0 <__register_exitproc+0x88>
   26348:	e59f00b8 	ldr	r0, [pc, #184]	; 26408 <__register_exitproc+0xf0>
   2634c:	e3500000 	cmp	r0, #0
   26350:	1a000001 	bne	2635c <__register_exitproc+0x44>
   26354:	e3e00000 	mvn	r0, #0
   26358:	ea000018 	b	263c0 <__register_exitproc+0xa8>
   2635c:	e3a00e19 	mov	r0, #400	; 0x190
   26360:	e58d100c 	str	r1, [sp, #12]
   26364:	e58d2008 	str	r2, [sp, #8]
   26368:	e58d3004 	str	r3, [sp, #4]
   2636c:	e320f000 	nop	{0}
   26370:	e250c000 	subs	r12, r0, #0
   26374:	e59d100c 	ldr	r1, [sp, #12]
   26378:	e59d2008 	ldr	r2, [sp, #8]
   2637c:	e59d3004 	ldr	r3, [sp, #4]
   26380:	0afffff3 	beq	26354 <__register_exitproc+0x3c>
   26384:	e5945148 	ldr	r5, [r4, #328]	; 0x148
   26388:	e3a00000 	mov	r0, #0
   2638c:	e58c0004 	str	r0, [r12, #4]
   26390:	e58c5000 	str	r5, [r12]
   26394:	e584c148 	str	r12, [r4, #328]	; 0x148
   26398:	e58c0188 	str	r0, [r12, #392]	; 0x188
   2639c:	e58c018c 	str	r0, [r12, #396]	; 0x18c
   263a0:	e3560000 	cmp	r6, #0
   263a4:	e59c4004 	ldr	r4, [r12, #4]
   263a8:	1a000007 	bne	263cc <__register_exitproc+0xb4>
   263ac:	e2843002 	add	r3, r4, #2
   263b0:	e2844001 	add	r4, r4, #1
   263b4:	e78c1103 	str	r1, [r12, r3, lsl #2]
   263b8:	e58c4004 	str	r4, [r12, #4]
   263bc:	e3a00000 	mov	r0, #0
   263c0:	e28dd010 	add	sp, sp, #16
   263c4:	e8bd41f0 	pop	{r4, r5, r6, r7, r8, lr}
   263c8:	e12fff1e 	bx	lr
   263cc:	e3a00001 	mov	r0, #1
   263d0:	e1a00410 	lsl	r0, r0, r4
   263d4:	e08c8104 	add	r8, r12, r4, lsl #2
   263d8:	e3560002 	cmp	r6, #2
   263dc:	e59c7188 	ldr	r7, [r12, #392]	; 0x188
   263e0:	e5883108 	str	r3, [r8, #264]	; 0x108
   263e4:	059c318c 	ldreq	r3, [r12, #396]	; 0x18c
   263e8:	e1877000 	orr	r7, r7, r0
   263ec:	01830000 	orreq	r0, r3, r0
   263f0:	e1a05008 	mov	r5, r8
   263f4:	e5882088 	str	r2, [r8, #136]	; 0x88
   263f8:	e58c7188 	str	r7, [r12, #392]	; 0x188
   263fc:	058c018c 	streq	r0, [r12, #396]	; 0x18c
   26400:	eaffffe9 	b	263ac <__register_exitproc+0x94>
   26404:	000266e4 	.word	0x000266e4
   26408:	00000000 	.word	0x00000000

0002640c <__call_exitprocs>:
   2640c:	e92d4ff0 	push	{r4, r5, r6, r7, r8, r9, r10, r11, lr}
   26410:	e59f3168 	ldr	r3, [pc, #360]	; 26580 <__call_exitprocs+0x174>
   26414:	e5933000 	ldr	r3, [r3]
   26418:	e24dd014 	sub	sp, sp, #20
   2641c:	e58d3004 	str	r3, [sp, #4]
   26420:	e2833f52 	add	r3, r3, #328	; 0x148
   26424:	e58d0008 	str	r0, [sp, #8]
   26428:	e58d300c 	str	r3, [sp, #12]
   2642c:	e1a07001 	mov	r7, r1
   26430:	e3a08001 	mov	r8, #1
   26434:	e59d3004 	ldr	r3, [sp, #4]
   26438:	e5936148 	ldr	r6, [r3, #328]	; 0x148
   2643c:	e3560000 	cmp	r6, #0
   26440:	e59db00c 	ldr	r11, [sp, #12]
   26444:	0a000033 	beq	26518 <__call_exitprocs+0x10c>
   26448:	e5965004 	ldr	r5, [r6, #4]
   2644c:	e2554001 	subs	r4, r5, #1
   26450:	5286a088 	addpl	r10, r6, #136	; 0x88
   26454:	5285501f 	addpl	r5, r5, #31
   26458:	508a5105 	addpl	r5, r10, r5, lsl #2
   2645c:	5a000007 	bpl	26480 <__call_exitprocs+0x74>
   26460:	ea000029 	b	2650c <__call_exitprocs+0x100>
   26464:	e5953000 	ldr	r3, [r5]
   26468:	e1530007 	cmp	r3, r7
   2646c:	0a000005 	beq	26488 <__call_exitprocs+0x7c>
   26470:	e2444001 	sub	r4, r4, #1
   26474:	e3740001 	cmn	r4, #1
   26478:	e2455004 	sub	r5, r5, #4
   2647c:	0a000022 	beq	2650c <__call_exitprocs+0x100>
   26480:	e3570000 	cmp	r7, #0
   26484:	1afffff6 	bne	26464 <__call_exitprocs+0x58>
   26488:	e5963004 	ldr	r3, [r6, #4]
   2648c:	e06a2005 	rsb	r2, r10, r5
   26490:	e2433001 	sub	r3, r3, #1
   26494:	e0862002 	add	r2, r6, r2
   26498:	e1530004 	cmp	r3, r4
   2649c:	e5123078 	ldr	r3, [r2, #-120]	; 0xffffff88
   264a0:	13a01000 	movne	r1, #0
   264a4:	05864004 	streq	r4, [r6, #4]
   264a8:	15021078 	strne	r1, [r2, #-120]	; 0xffffff88
   264ac:	e3530000 	cmp	r3, #0
   264b0:	0affffee 	beq	26470 <__call_exitprocs+0x64>
   264b4:	e1a02418 	lsl	r2, r8, r4
   264b8:	e5961188 	ldr	r1, [r6, #392]	; 0x188
   264bc:	e1120001 	tst	r2, r1
   264c0:	e5969004 	ldr	r9, [r6, #4]
   264c4:	0a000016 	beq	26524 <__call_exitprocs+0x118>
   264c8:	e596118c 	ldr	r1, [r6, #396]	; 0x18c
   264cc:	e1120001 	tst	r2, r1
   264d0:	1a000016 	bne	26530 <__call_exitprocs+0x124>
   264d4:	e59d0008 	ldr	r0, [sp, #8]
   264d8:	e5151080 	ldr	r1, [r5, #-128]	; 0xffffff80
   264dc:	e1a0e00f 	mov	lr, pc
   264e0:	e12fff13 	bx	r3
   264e4:	e5963004 	ldr	r3, [r6, #4]
   264e8:	e1530009 	cmp	r3, r9
   264ec:	1affffd0 	bne	26434 <__call_exitprocs+0x28>
   264f0:	e59b3000 	ldr	r3, [r11]
   264f4:	e1530006 	cmp	r3, r6
   264f8:	1affffcd 	bne	26434 <__call_exitprocs+0x28>
   264fc:	e2444001 	sub	r4, r4, #1
   26500:	e3740001 	cmn	r4, #1
   26504:	e2455004 	sub	r5, r5, #4
   26508:	1affffdc 	bne	26480 <__call_exitprocs+0x74>
   2650c:	e59f1070 	ldr	r1, [pc, #112]	; 26584 <__call_exitprocs+0x178>
   26510:	e3510000 	cmp	r1, #0
   26514:	1a000009 	bne	26540 <__call_exitprocs+0x134>
   26518:	e28dd014 	add	sp, sp, #20
   2651c:	e8bd4ff0 	pop	{r4, r5, r6, r7, r8, r9, r10, r11, lr}
   26520:	e12fff1e 	bx	lr
   26524:	e1a0e00f 	mov	lr, pc
   26528:	e12fff13 	bx	r3
   2652c:	eaffffec 	b	264e4 <__call_exitprocs+0xd8>
   26530:	e5150080 	ldr	r0, [r5, #-128]	; 0xffffff80
   26534:	e1a0e00f 	mov	lr, pc
   26538:	e12fff13 	bx	r3
   2653c:	eaffffe8 	b	264e4 <__call_exitprocs+0xd8>
   26540:	e5963004 	ldr	r3, [r6, #4]
   26544:	e3530000 	cmp	r3, #0
   26548:	e5963000 	ldr	r3, [r6]
   2654c:	1a000008 	bne	26574 <__call_exitprocs+0x168>
   26550:	e3530000 	cmp	r3, #0
   26554:	0a000006 	beq	26574 <__call_exitprocs+0x168>
   26558:	e1a00006 	mov	r0, r6
   2655c:	e58b3000 	str	r3, [r11]
   26560:	e320f000 	nop	{0}
   26564:	e59b6000 	ldr	r6, [r11]
   26568:	e3560000 	cmp	r6, #0
   2656c:	1affffb5 	bne	26448 <__call_exitprocs+0x3c>
   26570:	eaffffe8 	b	26518 <__call_exitprocs+0x10c>
   26574:	e1a0b006 	mov	r11, r6
   26578:	e1a06003 	mov	r6, r3
   2657c:	eafffff9 	b	26568 <__call_exitprocs+0x15c>
   26580:	000266e4 	.word	0x000266e4
   26584:	00000000 	.word	0x00000000

00026588 <register_fini>:
   26588:	e92d4008 	push	{r3, lr}
   2658c:	e59f3010 	ldr	r3, [pc, #16]	; 265a4 <register_fini+0x1c>
   26590:	e3530000 	cmp	r3, #0
   26594:	159f000c 	ldrne	r0, [pc, #12]	; 265a8 <register_fini+0x20>
   26598:	1bffff2b 	blne	2624c <atexit>
   2659c:	e8bd4008 	pop	{r3, lr}
   265a0:	e12fff1e 	bx	lr
   265a4:	0002670c 	.word	0x0002670c
   265a8:	000265ac 	.word	0x000265ac

000265ac <__libc_fini_array>:
   265ac:	e92d4038 	push	{r3, r4, r5, lr}
   265b0:	e59f5030 	ldr	r5, [pc, #48]	; 265e8 <__libc_fini_array+0x3c>
   265b4:	e59f4030 	ldr	r4, [pc, #48]	; 265ec <__libc_fini_array+0x40>
   265b8:	e0654004 	rsb	r4, r5, r4
   265bc:	e1b04144 	asrs	r4, r4, #2
   265c0:	10855104 	addne	r5, r5, r4, lsl #2
   265c4:	0a000004 	beq	265dc <__libc_fini_array+0x30>
   265c8:	e5353004 	ldr	r3, [r5, #-4]!
   265cc:	e1a0e00f 	mov	lr, pc
   265d0:	e12fff13 	bx	r3
   265d4:	e2544001 	subs	r4, r4, #1
   265d8:	1afffffa 	bne	265c8 <__libc_fini_array+0x1c>
   265dc:	eb00004a 	bl	2670c <__libc_fini>
   265e0:	e8bd4038 	pop	{r3, r4, r5, lr}
   265e4:	e12fff1e 	bx	lr
   265e8:	00026724 	.word	0x00026724
   265ec:	00026728 	.word	0x00026728

000265f0 <__cs3_premain>:
   265f0:	e92d4008 	push	{r3, lr}
   265f4:	eb000017 	bl	26658 <__libc_init_array>
   265f8:	e59f3030 	ldr	r3, [pc, #48]	; 26630 <__cs3_premain+0x40>
   265fc:	e3530000 	cmp	r3, #0
   26600:	15930000 	ldrne	r0, [r3]
   26604:	01a00003 	moveq	r0, r3
   26608:	e59f3024 	ldr	r3, [pc, #36]	; 26634 <__cs3_premain+0x44>
   2660c:	e3530000 	cmp	r3, #0
   26610:	15931000 	ldrne	r1, [r3]
   26614:	01a01003 	moveq	r1, r3
   26618:	e3a02000 	mov	r2, #0
   2661c:	ebff67f6 	bl	5fc <main>
   26620:	e59f3010 	ldr	r3, [pc, #16]	; 26638 <__cs3_premain+0x48>
   26624:	e3530000 	cmp	r3, #0
   26628:	1bffff0f 	blne	2626c <exit>
   2662c:	eafffffe 	b	2662c <__cs3_premain+0x3c>
	...
   26638:	0002626c 	.word	0x0002626c

0002663c <_exit>:
   2663c:	e52de004 	push	{lr}		; (str lr, [sp, #-4]!)
   26640:	e3a00018 	mov	r0, #24
   26644:	e59f1004 	ldr	r1, [pc, #4]	; 26650 <_exit+0x14>
   26648:	ef123456 	svc	0x00123456
   2664c:	eafffffe 	b	2664c <_exit+0x10>
   26650:	00020026 	.word	0x00020026

00026654 <__cs3_isr_interrupt>:
   26654:	eafffffe 	b	26654 <__cs3_isr_interrupt>

00026658 <__libc_init_array>:
   26658:	e92d4070 	push	{r4, r5, r6, lr}
   2665c:	e59f506c 	ldr	r5, [pc, #108]	; 266d0 <__libc_init_array+0x78>
   26660:	e59f606c 	ldr	r6, [pc, #108]	; 266d4 <__libc_init_array+0x7c>
   26664:	e0656006 	rsb	r6, r5, r6
   26668:	e1b06146 	asrs	r6, r6, #2
   2666c:	12455004 	subne	r5, r5, #4
   26670:	13a04000 	movne	r4, #0
   26674:	0a000005 	beq	26690 <__libc_init_array+0x38>
   26678:	e5b53004 	ldr	r3, [r5, #4]!
   2667c:	e2844001 	add	r4, r4, #1
   26680:	e1a0e00f 	mov	lr, pc
   26684:	e12fff13 	bx	r3
   26688:	e1560004 	cmp	r6, r4
   2668c:	1afffff9 	bne	26678 <__libc_init_array+0x20>
   26690:	e59f5040 	ldr	r5, [pc, #64]	; 266d8 <__libc_init_array+0x80>
   26694:	e59f6040 	ldr	r6, [pc, #64]	; 266dc <__libc_init_array+0x84>
   26698:	e0656006 	rsb	r6, r5, r6
   2669c:	eb000012 	bl	266ec <_init>
   266a0:	e1b06146 	asrs	r6, r6, #2
   266a4:	12455004 	subne	r5, r5, #4
   266a8:	13a04000 	movne	r4, #0
   266ac:	0a000005 	beq	266c8 <__libc_init_array+0x70>
   266b0:	e5b53004 	ldr	r3, [r5, #4]!
   266b4:	e2844001 	add	r4, r4, #1
   266b8:	e1a0e00f 	mov	lr, pc
   266bc:	e12fff13 	bx	r3
   266c0:	e1560004 	cmp	r6, r4
   266c4:	1afffff9 	bne	266b0 <__libc_init_array+0x58>
   266c8:	e8bd4070 	pop	{r4, r5, r6, lr}
   266cc:	e12fff1e 	bx	lr
   266d0:	00026704 	.word	0x00026704
   266d4:	00026704 	.word	0x00026704
   266d8:	00026704 	.word	0x00026704
   266dc:	0002670c 	.word	0x0002670c
